Certificate:
    Data:
        Version: 3 (0x2)
        Serial Number: 12 (0xc)
        Signature Algorithm: sha256WithRSAEncryption
        Issuer: CN=TEST ENTITY LIR1
        Validity
            Not Before: Aug 10 00:58:18 2007 GMT
            Not After : Aug  9 00:58:18 2008 GMT
        Subject: CN=TEST ENTITY ISP1
        Subject Public Key Info:
            Public Key Algorithm: rsaEncryption
            RSA Public Key: (2048 bit)
                Modulus (2048 bit):
                    00:eb:80:54:7a:74:4b:e4:81:15:d0:25:2d:5e:21:
                    be:47:e6:31:ab:e2:fe:79:55:48:b7:36:55:3d:dc:
                    11:88:5b:b7:36:be:d3:bb:d7:16:8d:f8:4b:f4:c5:
                    bd:34:c4:8e:2c:67:97:e6:27:10:40:c5:36:f4:b6:
                    6c:b9:29:82:2e:76:b0:29:ea:43:9a:d1:30:de:05:
                    a1:c1:54:7c:17:67:1d:fc:29:dd:80:53:b2:81:30:
                    db:13:ee:3e:e6:5d:c7:bc:3d:a6:11:6d:81:77:b7:
                    9f:3e:36:df:7c:d6:d2:5a:22:36:68:7c:14:cc:ac:
                    54:ed:ae:fd:e2:cd:b1:a3:5d:a9:65:ec:1b:8b:4b:
                    cf:80:8e:a6:98:8f:69:b1:a6:35:bd:69:c9:2e:66:
                    7f:22:11:66:56:c5:75:4c:81:a3:6e:49:71:0d:f5:
                    75:87:13:e8:62:e8:1a:0c:a8:30:81:6a:be:90:59:
                    23:3b:61:c0:15:5f:68:bf:b5:c9:3f:af:3a:a2:7f:
                    80:01:78:f6:f4:55:ca:ee:ca:8d:08:9b:c5:3e:74:
                    98:02:b2:0b:a6:d8:e8:6e:78:88:7b:95:76:b6:ca:
                    be:f1:80:a9:dd:e8:3c:80:91:ce:3f:fd:0b:dd:b7:
                    d8:a6:8c:94:20:07:19:74:fa:86:ff:cb:97:c3:f6:
                    a4:e7
                Exponent: 65537 (0x10001)
        X509v3 extensions:
            X509v3 Basic Constraints: critical
                CA:TRUE
            X509v3 Subject Key Identifier: 
                66:EC:29:21:2E:76:83:19:39:ED:8E:ED:B7:06:A8:4C:E5:0E:2E:11
            X509v3 Key Usage: critical
                Certificate Sign, CRL Sign
            Subject Information Access: 
                1.3.6.1.5.5.7.48.5 - URI:rsync://wombats-r-us.hactrn.net/ISP1/

    Signature Algorithm: sha256WithRSAEncryption
        91:b8:bc:18:27:a1:ec:e7:7b:49:59:f6:83:d7:e9:7a:86:73:
        54:84:23:20:5d:00:cc:a4:08:68:9e:ef:33:ad:75:1b:ed:34:
        bb:36:82:b6:e9:ae:00:5d:a6:9e:11:98:cb:72:f7:a0:77:bd:
        d0:8e:32:28:b6:cf:e9:3a:8c:bf:4c:94:2b:db:ca:1b:ee:07:
        37:c9:51:15:9b:f0:43:b7:31:a2:67:cc:7f:f9:2e:6a:33:ae:
        23:6b:de:04:03:03:99:bc:8a:e9:6c:e9:dd:8c:62:3c:b2:df:
        c0:5c:19:c7:50:c5:5a:86:68:2a:52:fd:7d:85:8c:5f:a8:a2:
        5c:7d:58:70:1f:05:c3:cb:4b:f6:91:a3:9d:00:64:0e:1c:f2:
        ed:1b:45:f4:e0:82:a1:0b:22:e0:77:c0:7a:e9:9d:ce:e3:62:
        e7:f6:12:0d:4d:bb:be:fc:7a:3d:fd:54:14:4f:0b:5c:44:f5:
        7e:6a:74:20:cd:15:9d:3c:86:21:9c:54:ef:d5:ed:8d:b4:36:
        34:45:c1:3f:8b:49:27:4d:f5:2d:03:ab:b4:c6:b4:aa:74:da:
        37:23:b7:88:70:8e:e9:37:88:54:98:91:b3:42:50:8f:61:ce:
        8c:5f:99:4e:f7:61:0a:aa:b9:15:95:87:92:1f:ef:00:02:2b:
        ea:5f:09:60
-----BEGIN CERTIFICATE-----
MIIDODCCAiCgAwIBAgIBDDANBgkqhkiG9w0BAQsFADAbMRkwFwYDVQQDExBURVNU
IEVOVElUWSBMSVIxMB4XDTA3MDgxMDAwNTgxOFoXDTA4MDgwOTAwNTgxOFowGzEZ
MBcGA1UEAxMQVEVTVCBFTlRJVFkgSVNQMTCCASIwDQYJKoZIhvcNAQEBBQADggEP
ADCCAQoCggEBAOuAVHp0S+SBFdAlLV4hvkfmMavi/nlVSLc2VT3cEYhbtza+07vX
Fo34S/TFvTTEjixnl+YnEEDFNvS2bLkpgi52sCnqQ5rRMN4FocFUfBdnHfwp3YBT
soEw2xPuPuZdx7w9phFtgXe3nz4233zW0loiNmh8FMysVO2u/eLNsaNdqWXsG4tL
z4COppiPabGmNb1pyS5mfyIRZlbFdUyBo25JcQ31dYcT6GLoGgyoMIFqvpBZIzth
wBVfaL+1yT+vOqJ/gAF49vRVyu7KjQibxT50mAKyC6bY6G54iHuVdrbKvvGAqd3o
PICRzj/9C9232KaMlCAHGXT6hv/Ll8P2pOcCAwEAAaOBhjCBgzAPBgNVHRMBAf8E
BTADAQH/MB0GA1UdDgQWBBRm7CkhLnaDGTntju23BqhM5Q4uETAOBgNVHQ8BAf8E
BAMCAQYwQQYIKwYBBQUHAQsENTAzMDEGCCsGAQUFBzAFhiVyc3luYzovL3dvbWJh
dHMtci11cy5oYWN0cm4ubmV0L0lTUDEvMA0GCSqGSIb3DQEBCwUAA4IBAQCRuLwY
J6Hs53tJWfaD1+l6hnNUhCMgXQDMpAhonu8zrXUb7TS7NoK26a4AXaaeEZjLcveg
d73QjjIots/pOoy/TJQr28ob7gc3yVEVm/BDtzGiZ8x/+S5qM64ja94EAwOZvIrp
bOndjGI8st/AXBnHUMVahmgqUv19hYxfqKJcfVhwHwXDy0v2kaOdAGQOHPLtG0X0
4IKhCyLgd8B66Z3O42Ln9hINTbu+/Ho9/VQUTwtcRPV+anQgzRWdPIYhnFTv1e2N
tDY0RcE/i0knTfUtA6u0xrSqdNo3I7eIcI7pN4hUmJGzQlCPYc6MX5lO92EKqrkV
lYeSH+8AAivqXwlg
-----END CERTIFICATE-----
