Certificate:
    Data:
        Version: 3 (0x2)
        Serial Number: 15 (0xf)
        Signature Algorithm: sha256WithRSAEncryption
        Issuer: CN=TEST ENTITY LIR3
        Validity
            Not Before: Aug 10 01:13:39 2007 GMT
            Not After : Aug  9 01:13:39 2008 GMT
        Subject: CN=TEST ENTITY ISP5a
        Subject Public Key Info:
            Public Key Algorithm: rsaEncryption
            RSA Public Key: (2048 bit)
                Modulus (2048 bit):
                    00:e6:4b:ad:78:28:6b:e6:50:1b:65:81:d5:8d:2b:
                    56:77:cd:bb:c9:47:a0:aa:32:b0:2c:ac:1f:f1:e4:
                    90:2b:c2:33:6f:e7:53:b1:d0:1d:ab:05:27:9d:b7:
                    a1:ee:a8:4f:c8:5b:36:23:e3:12:e4:51:59:27:cd:
                    fd:7a:aa:dc:56:05:a1:73:ab:79:dd:3c:82:b2:8f:
                    ae:f9:ec:c0:36:38:e6:02:aa:fd:89:60:21:52:5b:
                    b6:33:80:75:e5:7f:fd:ac:6e:ec:d4:9a:26:2f:7e:
                    28:45:16:29:47:7d:f3:8a:72:d5:e4:65:fa:f4:54:
                    6f:ae:48:33:62:c1:32:f1:2b:83:33:36:63:60:9e:
                    bc:c7:e7:99:5d:51:da:cd:2f:8f:83:47:20:9e:e9:
                    cc:a3:72:c0:72:bd:49:2d:c4:52:ea:6f:da:42:46:
                    71:90:c7:af:7f:9f:c7:dd:0b:96:96:3c:45:9f:c0:
                    ea:65:6a:43:e3:f3:92:d5:e1:73:c0:6e:20:f5:17:
                    e5:d1:58:da:21:b3:e9:0c:4d:f0:e8:bd:7c:b7:ef:
                    81:c9:f5:70:cf:a8:20:7d:e2:6a:f9:1b:66:a9:c8:
                    71:d6:32:f8:72:3d:83:99:19:0d:0c:6b:e9:f8:92:
                    cd:33:17:86:6a:3d:af:0d:05:94:ab:1c:d4:2c:a4:
                    45:cb
                Exponent: 65537 (0x10001)
        X509v3 extensions:
            X509v3 Basic Constraints: critical
                CA:TRUE
            X509v3 Key Usage: critical
                Certificate Sign, CRL Sign
            Subject Information Access: 
                1.3.6.1.5.5.7.48.5 - URI:rsync://wombats-r-us.hactrn.net/ISP5a/

    Signature Algorithm: sha256WithRSAEncryption
        71:9a:80:f3:ba:b7:60:6f:6c:f5:31:18:c9:e3:45:61:0a:93:
        d9:c3:23:35:dc:11:da:cf:b4:c7:d5:36:cd:48:a7:63:c2:e9:
        44:3c:56:c1:60:e1:7a:ab:b1:03:32:22:c7:8d:d8:24:a9:e4:
        70:e9:d2:fd:7b:e6:20:2c:9d:ed:71:d2:9e:30:a0:f0:b2:67:
        87:87:f7:d5:96:da:67:d4:8a:e2:aa:f2:e8:2f:b2:cd:d7:92:
        ed:9f:44:7f:f9:3d:f8:5d:c6:44:ef:a0:d3:98:41:ce:5b:c7:
        c3:b1:bb:fc:08:ec:b4:4e:0c:4d:8e:30:63:f9:06:50:a3:b1:
        48:6e:c0:5b:ed:9a:7c:0e:ec:32:2e:c2:9e:12:28:94:9d:ed:
        3c:99:4c:74:73:6b:ec:58:41:b3:f9:58:fb:2c:31:00:7d:20:
        13:07:63:3e:a4:ca:59:95:37:3f:cf:b0:ae:6a:15:5a:09:8c:
        4b:77:c4:78:76:73:90:98:c6:2a:97:70:e1:c0:90:24:c0:3c:
        a5:99:3f:74:d0:a2:e5:f5:d3:dc:52:35:71:7a:bd:48:38:a9:
        66:a7:42:28:ae:93:82:f3:1a:99:be:52:69:d4:f9:d1:15:4d:
        3f:2f:65:c6:9f:9f:73:00:59:f5:45:75:1f:35:06:e9:4a:b7:
        b5:77:9a:bf
-----BEGIN CERTIFICATE-----
MIIDGTCCAgGgAwIBAgIBDzANBgkqhkiG9w0BAQsFADAbMRkwFwYDVQQDExBURVNU
IEVOVElUWSBMSVIzMB4XDTA3MDgxMDAxMTMzOVoXDTA4MDgwOTAxMTMzOVowHDEa
MBgGA1UEAxMRVEVTVCBFTlRJVFkgSVNQNWEwggEiMA0GCSqGSIb3DQEBAQUAA4IB
DwAwggEKAoIBAQDmS614KGvmUBtlgdWNK1Z3zbvJR6CqMrAsrB/x5JArwjNv51Ox
0B2rBSedt6HuqE/IWzYj4xLkUVknzf16qtxWBaFzq3ndPIKyj6757MA2OOYCqv2J
YCFSW7YzgHXlf/2sbuzUmiYvfihFFilHffOKctXkZfr0VG+uSDNiwTLxK4MzNmNg
nrzH55ldUdrNL4+DRyCe6cyjcsByvUktxFLqb9pCRnGQx69/n8fdC5aWPEWfwOpl
akPj85LV4XPAbiD1F+XRWNohs+kMTfDovXy374HJ9XDPqCB94mr5G2apyHHWMvhy
PYOZGQ0Ma+n4ks0zF4ZqPa8NBZSrHNQspEXLAgMBAAGjZzBlMA8GA1UdEwEB/wQF
MAMBAf8wDgYDVR0PAQH/BAQDAgEGMEIGCCsGAQUFBwELBDYwNDAyBggrBgEFBQcw
BYYmcnN5bmM6Ly93b21iYXRzLXItdXMuaGFjdHJuLm5ldC9JU1A1YS8wDQYJKoZI
hvcNAQELBQADggEBAHGagPO6t2BvbPUxGMnjRWEKk9nDIzXcEdrPtMfVNs1Ip2PC
6UQ8VsFg4XqrsQMyIseN2CSp5HDp0v175iAsne1x0p4woPCyZ4eH99WW2mfUiuKq
8ugvss3Xku2fRH/5PfhdxkTvoNOYQc5bx8Oxu/wI7LRODE2OMGP5BlCjsUhuwFvt
mnwO7DIuwp4SKJSd7TyZTHRza+xYQbP5WPssMQB9IBMHYz6kylmVNz/PsK5qFVoJ
jEt3xHh2c5CYxiqXcOHAkCTAPKWZP3TQouX109xSNXF6vUg4qWanQiiuk4LzGpm+
UmnU+dEVTT8vZcafn3MAWfVFdR81BulKt7V3mr8=
-----END CERTIFICATE-----
