Certificate:
    Data:
        Version: 3 (0x2)
        Serial Number: 6 (0x6)
        Signature Algorithm: sha256WithRSAEncryption
        Issuer: CN=TEST ENTITY LIR3
        Validity
            Not Before: Aug 10 00:58:17 2007 GMT
            Not After : Aug  9 00:58:17 2008 GMT
        Subject: CN=TEST ENTITY ISP5a
        Subject Public Key Info:
            Public Key Algorithm: rsaEncryption
            RSA Public Key: (2048 bit)
                Modulus (2048 bit):
                    00:e6:4b:ad:78:28:6b:e6:50:1b:65:81:d5:8d:2b:
                    56:77:cd:bb:c9:47:a0:aa:32:b0:2c:ac:1f:f1:e4:
                    90:2b:c2:33:6f:e7:53:b1:d0:1d:ab:05:27:9d:b7:
                    a1:ee:a8:4f:c8:5b:36:23:e3:12:e4:51:59:27:cd:
                    fd:7a:aa:dc:56:05:a1:73:ab:79:dd:3c:82:b2:8f:
                    ae:f9:ec:c0:36:38:e6:02:aa:fd:89:60:21:52:5b:
                    b6:33:80:75:e5:7f:fd:ac:6e:ec:d4:9a:26:2f:7e:
                    28:45:16:29:47:7d:f3:8a:72:d5:e4:65:fa:f4:54:
                    6f:ae:48:33:62:c1:32:f1:2b:83:33:36:63:60:9e:
                    bc:c7:e7:99:5d:51:da:cd:2f:8f:83:47:20:9e:e9:
                    cc:a3:72:c0:72:bd:49:2d:c4:52:ea:6f:da:42:46:
                    71:90:c7:af:7f:9f:c7:dd:0b:96:96:3c:45:9f:c0:
                    ea:65:6a:43:e3:f3:92:d5:e1:73:c0:6e:20:f5:17:
                    e5:d1:58:da:21:b3:e9:0c:4d:f0:e8:bd:7c:b7:ef:
                    81:c9:f5:70:cf:a8:20:7d:e2:6a:f9:1b:66:a9:c8:
                    71:d6:32:f8:72:3d:83:99:19:0d:0c:6b:e9:f8:92:
                    cd:33:17:86:6a:3d:af:0d:05:94:ab:1c:d4:2c:a4:
                    45:cb
                Exponent: 65537 (0x10001)
        X509v3 extensions:
            X509v3 Basic Constraints: critical
                CA:TRUE
            X509v3 Subject Key Identifier: 
                09:F0:14:0B:79:FB:0B:FF:A8:EF:54:B9:EC:3E:B9:8B:D0:CB:9C:EC
            X509v3 Key Usage: critical
                Certificate Sign, CRL Sign
            Subject Information Access: 
                1.3.6.1.5.5.7.48.5 - URI:rsync://wombats-r-us.hactrn.net/ISP5a/

    Signature Algorithm: sha256WithRSAEncryption
        6b:75:56:d5:11:aa:e9:73:f5:1c:b8:ec:d8:52:52:8f:84:c4:
        3f:80:26:cc:f3:57:f5:71:db:2d:e6:33:9b:25:e4:c0:d8:ff:
        6e:96:30:d0:be:e4:0c:16:c1:0c:2f:5f:bc:94:44:14:64:74:
        11:37:2e:42:c5:2e:31:ca:09:2e:ca:d1:4e:76:74:a4:0d:2a:
        92:50:3e:c4:6d:85:98:23:e2:ce:28:9e:67:8e:35:27:af:06:
        af:fb:af:e4:28:c6:ac:ad:e9:29:f9:5d:ba:fb:26:5a:e4:7c:
        0c:29:f0:d3:a5:b7:b8:b0:3b:93:6b:cb:6a:3f:73:b1:e0:2c:
        c2:6e:35:6b:c9:56:e0:0e:b4:64:94:6a:7e:eb:be:52:2d:22:
        2c:4e:9d:09:8d:cb:20:5d:c2:f9:51:40:d4:f9:a5:0d:b3:4b:
        0c:a2:8a:fe:d1:63:16:54:68:1c:8d:d3:12:9b:96:84:9d:d9:
        ba:02:68:04:7f:88:ac:2a:5b:f5:31:0a:d1:35:36:6b:ab:96:
        c3:de:56:16:a8:71:a7:af:c5:a4:42:24:ba:a4:cf:2b:99:96:
        8a:eb:ce:5a:6b:40:0a:36:55:be:c5:ab:50:46:8f:66:4d:7d:
        6c:04:11:2a:0c:e0:2b:11:5e:53:48:32:39:f8:62:58:25:59:
        c8:7e:31:22
-----BEGIN CERTIFICATE-----
MIIDOjCCAiKgAwIBAgIBBjANBgkqhkiG9w0BAQsFADAbMRkwFwYDVQQDExBURVNU
IEVOVElUWSBMSVIzMB4XDTA3MDgxMDAwNTgxN1oXDTA4MDgwOTAwNTgxN1owHDEa
MBgGA1UEAxMRVEVTVCBFTlRJVFkgSVNQNWEwggEiMA0GCSqGSIb3DQEBAQUAA4IB
DwAwggEKAoIBAQDmS614KGvmUBtlgdWNK1Z3zbvJR6CqMrAsrB/x5JArwjNv51Ox
0B2rBSedt6HuqE/IWzYj4xLkUVknzf16qtxWBaFzq3ndPIKyj6757MA2OOYCqv2J
YCFSW7YzgHXlf/2sbuzUmiYvfihFFilHffOKctXkZfr0VG+uSDNiwTLxK4MzNmNg
nrzH55ldUdrNL4+DRyCe6cyjcsByvUktxFLqb9pCRnGQx69/n8fdC5aWPEWfwOpl
akPj85LV4XPAbiD1F+XRWNohs+kMTfDovXy374HJ9XDPqCB94mr5G2apyHHWMvhy
PYOZGQ0Ma+n4ks0zF4ZqPa8NBZSrHNQspEXLAgMBAAGjgYcwgYQwDwYDVR0TAQH/
BAUwAwEB/zAdBgNVHQ4EFgQUCfAUC3n7C/+o71S57D65i9DLnOwwDgYDVR0PAQH/
BAQDAgEGMEIGCCsGAQUFBwELBDYwNDAyBggrBgEFBQcwBYYmcnN5bmM6Ly93b21i
YXRzLXItdXMuaGFjdHJuLm5ldC9JU1A1YS8wDQYJKoZIhvcNAQELBQADggEBAGt1
VtURqulz9Ry47NhSUo+ExD+AJszzV/Vx2y3mM5sl5MDY/26WMNC+5AwWwQwvX7yU
RBRkdBE3LkLFLjHKCS7K0U52dKQNKpJQPsRthZgj4s4onmeONSevBq/7r+Qoxqyt
6Sn5Xbr7JlrkfAwp8NOlt7iwO5Nry2o/c7HgLMJuNWvJVuAOtGSUan7rvlItIixO
nQmNyyBdwvlRQNT5pQ2zSwyiiv7RYxZUaByN0xKbloSd2boCaAR/iKwqW/UxCtE1
NmurlsPeVhaocaevxaRCJLqkzyuZlorrzlprQAo2Vb7Fq1BGj2ZNfWwEESoM4CsR
XlNIMjn4YlglWch+MSI=
-----END CERTIFICATE-----
