Certificate:
    Data:
        Version: 3 (0x2)
        Serial Number: 13 (0xd)
        Signature Algorithm: sha256WithRSAEncryption
        Issuer: CN=TEST ENTITY LIR3
        Validity
            Not Before: Aug 10 01:13:39 2007 GMT
            Not After : Aug  9 01:13:39 2008 GMT
        Subject: CN=TEST ENTITY ISP5c
        Subject Public Key Info:
            Public Key Algorithm: rsaEncryption
            RSA Public Key: (2048 bit)
                Modulus (2048 bit):
                    00:c8:8b:a1:25:65:df:ee:a2:7f:54:af:52:0a:1a:
                    1a:fa:0d:75:b3:3c:e9:e0:29:d3:89:20:e9:51:49:
                    67:2c:43:da:a0:2c:d4:44:b3:96:14:a9:07:77:60:
                    b9:6f:01:ef:8e:54:a5:74:ac:5a:67:f8:30:4d:10:
                    f9:ac:9f:b8:75:61:0b:f6:e7:7c:ea:9b:5c:98:7a:
                    4b:3e:c4:e2:59:42:d3:19:ca:0f:58:0e:b7:c8:82:
                    4e:e5:bb:ac:fd:92:e5:88:b2:fc:64:cf:6e:38:3b:
                    18:83:fc:e7:a6:ae:fb:90:36:d0:e1:ca:4d:90:41:
                    0f:0f:3b:2a:c0:0c:d9:7b:7d:e8:50:13:f6:09:73:
                    82:a3:d2:e3:bb:82:08:87:7f:d2:bb:0e:0e:7a:28:
                    b6:25:02:b5:d9:51:fc:33:32:47:47:ff:cf:7f:bc:
                    ee:00:01:bb:05:5e:2e:03:9a:ad:95:3b:ca:c2:c6:
                    87:64:74:39:aa:59:6b:ae:e0:a7:51:1a:07:f2:8e:
                    4c:8e:65:2f:df:f2:99:ba:e0:b6:8a:4f:c0:20:72:
                    79:98:00:8f:0d:50:13:3d:d1:3e:8c:bd:dc:74:a9:
                    33:a8:56:1d:31:78:7c:e7:02:9e:8d:0a:14:12:6d:
                    d3:37:c7:7a:f0:84:10:fe:fe:4d:28:97:26:6e:08:
                    85:a1
                Exponent: 65537 (0x10001)
        X509v3 extensions:
            X509v3 Basic Constraints: critical
                CA:TRUE
            X509v3 Key Usage: critical
                Certificate Sign, CRL Sign
            Subject Information Access: 
                1.3.6.1.5.5.7.48.5 - URI:rsync://wombats-r-us.hactrn.net/ISP5c/

    Signature Algorithm: sha256WithRSAEncryption
        1f:7e:d1:95:bc:b5:52:1b:fc:3f:0b:29:18:d2:72:db:70:8b:
        00:7b:9a:d0:1e:f1:cc:bc:c7:7b:bf:eb:0f:01:13:8f:d4:29:
        5b:53:46:7b:d3:cb:72:a9:7b:98:ca:25:d3:8a:72:d2:f5:53:
        67:c6:e1:59:7b:1a:6b:92:37:fd:ce:98:12:5c:ae:f2:37:c4:
        41:7c:30:5d:19:54:9d:d2:ad:59:a2:df:b5:4a:d8:fb:ca:06:
        bf:fb:2a:a5:85:64:d2:80:ab:d2:67:4e:a5:fa:92:cb:70:14:
        62:5d:ac:bf:1e:13:1f:7e:51:e7:56:08:7e:f7:6a:ae:d1:a2:
        14:d2:e7:e3:c7:aa:c6:29:65:66:f1:71:7f:59:8a:20:ba:01:
        a4:12:c1:53:01:b4:c3:7c:fe:50:df:d9:7c:61:6f:e1:5d:54:
        e4:1f:91:9c:80:ce:c9:e6:e9:c6:1c:8e:60:c2:dd:bf:72:6f:
        32:cb:37:fb:4b:b8:c3:46:16:53:ee:74:40:d4:f3:78:8a:1e:
        e1:2d:2b:2b:fa:16:ea:f5:e3:85:10:57:43:68:33:54:cc:4d:
        a7:16:ad:ce:79:da:dc:28:94:1d:54:36:2b:6a:37:9e:b0:85:
        44:9d:5c:f4:97:25:b0:3a:42:cf:c6:d0:c2:7c:f1:fc:81:53:
        0b:b7:b4:71
-----BEGIN CERTIFICATE-----
MIIDGTCCAgGgAwIBAgIBDTANBgkqhkiG9w0BAQsFADAbMRkwFwYDVQQDExBURVNU
IEVOVElUWSBMSVIzMB4XDTA3MDgxMDAxMTMzOVoXDTA4MDgwOTAxMTMzOVowHDEa
MBgGA1UEAxMRVEVTVCBFTlRJVFkgSVNQNWMwggEiMA0GCSqGSIb3DQEBAQUAA4IB
DwAwggEKAoIBAQDIi6ElZd/uon9Ur1IKGhr6DXWzPOngKdOJIOlRSWcsQ9qgLNRE
s5YUqQd3YLlvAe+OVKV0rFpn+DBNEPmsn7h1YQv253zqm1yYeks+xOJZQtMZyg9Y
DrfIgk7lu6z9kuWIsvxkz244OxiD/OemrvuQNtDhyk2QQQ8POyrADNl7fehQE/YJ
c4Kj0uO7ggiHf9K7Dg56KLYlArXZUfwzMkdH/89/vO4AAbsFXi4Dmq2VO8rCxodk
dDmqWWuu4KdRGgfyjkyOZS/f8pm64LaKT8AgcnmYAI8NUBM90T6Mvdx0qTOoVh0x
eHznAp6NChQSbdM3x3rwhBD+/k0olyZuCIWhAgMBAAGjZzBlMA8GA1UdEwEB/wQF
MAMBAf8wDgYDVR0PAQH/BAQDAgEGMEIGCCsGAQUFBwELBDYwNDAyBggrBgEFBQcw
BYYmcnN5bmM6Ly93b21iYXRzLXItdXMuaGFjdHJuLm5ldC9JU1A1Yy8wDQYJKoZI
hvcNAQELBQADggEBAB9+0ZW8tVIb/D8LKRjScttwiwB7mtAe8cy8x3u/6w8BE4/U
KVtTRnvTy3Kpe5jKJdOKctL1U2fG4Vl7GmuSN/3OmBJcrvI3xEF8MF0ZVJ3SrVmi
37VK2PvKBr/7KqWFZNKAq9JnTqX6kstwFGJdrL8eEx9+UedWCH73aq7RohTS5+PH
qsYpZWbxcX9ZiiC6AaQSwVMBtMN8/lDf2Xxhb+FdVOQfkZyAzsnm6cYcjmDC3b9y
bzLLN/tLuMNGFlPudEDU83iKHuEtKyv6Fur144UQV0NoM1TMTacWrc552twolB1U
NitqN56whUSdXPSXJbA6Qs/G0MJ88fyBUwu3tHE=
-----END CERTIFICATE-----
