Certificate:
    Data:
        Version: 3 (0x2)
        Serial Number: 14 (0xe)
        Signature Algorithm: sha256WithRSAEncryption
        Issuer: CN=TEST ENTITY LIR3
        Validity
            Not Before: Aug 10 01:13:39 2007 GMT
            Not After : Aug  9 01:13:39 2008 GMT
        Subject: CN=TEST ENTITY ISP5b
        Subject Public Key Info:
            Public Key Algorithm: rsaEncryption
            RSA Public Key: (2048 bit)
                Modulus (2048 bit):
                    00:bf:8f:59:d8:fc:fa:1d:04:70:29:ce:7b:01:64:
                    21:40:dc:5c:43:fe:4c:af:88:c8:62:9b:be:9c:72:
                    8f:8a:a5:34:8a:3b:23:8d:9b:8a:4f:bf:66:ac:68:
                    71:9c:fd:68:59:f5:bf:9f:4d:2e:b5:d6:e3:fa:bd:
                    f3:60:53:5c:b7:11:ac:95:0b:c0:87:cd:99:9e:94:
                    57:8d:ec:05:b8:df:aa:fc:8e:38:d3:0f:65:6d:09:
                    60:f2:e1:98:81:72:d8:51:3e:41:91:b3:10:95:f5:
                    f5:d0:f9:e5:5c:a1:85:fa:71:26:85:e3:d1:4c:02:
                    7f:14:e2:1e:4a:8a:96:68:9e:d6:16:a5:ef:ad:b5:
                    83:62:cd:23:74:7c:82:56:b4:d1:34:53:5a:8a:7a:
                    61:9f:ae:54:5b:ef:f9:56:de:87:6b:42:92:bc:49:
                    f4:b5:c3:35:07:4a:18:47:d2:92:c6:1c:16:74:74:
                    b1:e9:39:3c:53:12:05:9d:eb:dc:9c:72:2b:97:4d:
                    27:21:77:96:7d:4c:ce:79:0c:fb:a7:b8:99:6b:66:
                    20:2e:56:9c:44:b4:e3:5e:80:c4:7d:78:a1:b4:05:
                    f7:20:7d:26:1e:44:bf:5d:69:15:3c:7a:24:67:bd:
                    b9:b5:08:0f:33:4d:af:3b:2d:e7:b9:ab:1d:2b:d6:
                    fb:73
                Exponent: 65537 (0x10001)
        X509v3 extensions:
            X509v3 Basic Constraints: critical
                CA:TRUE
            X509v3 Key Usage: critical
                Certificate Sign, CRL Sign
            Subject Information Access: 
                1.3.6.1.5.5.7.48.5 - URI:rsync://wombats-r-us.hactrn.net/ISP5b/

    Signature Algorithm: sha256WithRSAEncryption
        96:34:8a:58:26:99:07:8d:0c:24:fe:84:fb:00:19:d6:cc:64:
        39:28:1b:33:69:82:b7:1f:3b:0c:ae:96:94:d6:fa:a3:00:2c:
        7e:f7:68:60:e3:11:98:5c:86:1e:7b:47:44:0d:b0:e7:62:60:
        ec:57:d6:ea:64:7c:66:45:57:5e:c9:b3:c3:54:9a:18:59:7d:
        d4:2e:5e:30:cd:a8:41:51:21:83:ad:b2:b1:27:4d:a1:e7:72:
        25:43:f3:34:50:5a:dd:67:4e:72:ba:fa:5a:6d:c9:aa:01:67:
        b5:71:4a:28:ee:1e:e7:5f:27:59:11:be:ee:25:f3:a5:b2:2e:
        8f:9a:6d:19:54:17:0b:97:a9:4a:49:bf:c3:44:3e:73:7d:93:
        03:f6:e2:a1:b1:7c:0a:a5:62:b5:5c:9e:9c:c7:f1:3f:ce:f3:
        35:2b:47:30:e6:f4:a4:b3:27:9e:37:08:1f:da:d5:ac:19:e8:
        ba:72:ab:85:fe:c1:c9:d2:cc:75:f2:62:bc:37:21:ff:0f:df:
        8f:7f:6e:07:c6:8f:84:80:16:4a:1d:a3:fe:28:78:ba:10:9a:
        ad:ef:03:f9:0a:c0:b9:fe:20:f7:6d:49:30:c0:26:e3:63:8d:
        f3:6d:88:6a:b3:74:28:a2:a3:5c:2e:4e:2c:1f:46:d3:4a:c5:
        b1:6f:aa:06
-----BEGIN CERTIFICATE-----
MIIDGTCCAgGgAwIBAgIBDjANBgkqhkiG9w0BAQsFADAbMRkwFwYDVQQDExBURVNU
IEVOVElUWSBMSVIzMB4XDTA3MDgxMDAxMTMzOVoXDTA4MDgwOTAxMTMzOVowHDEa
MBgGA1UEAxMRVEVTVCBFTlRJVFkgSVNQNWIwggEiMA0GCSqGSIb3DQEBAQUAA4IB
DwAwggEKAoIBAQC/j1nY/PodBHApznsBZCFA3FxD/kyviMhim76cco+KpTSKOyON
m4pPv2asaHGc/WhZ9b+fTS611uP6vfNgU1y3EayVC8CHzZmelFeN7AW436r8jjjT
D2VtCWDy4ZiBcthRPkGRsxCV9fXQ+eVcoYX6cSaF49FMAn8U4h5KipZontYWpe+t
tYNizSN0fIJWtNE0U1qKemGfrlRb7/lW3odrQpK8SfS1wzUHShhH0pLGHBZ0dLHp
OTxTEgWd69ycciuXTSchd5Z9TM55DPunuJlrZiAuVpxEtONegMR9eKG0BfcgfSYe
RL9daRU8eiRnvbm1CA8zTa87Lee5qx0r1vtzAgMBAAGjZzBlMA8GA1UdEwEB/wQF
MAMBAf8wDgYDVR0PAQH/BAQDAgEGMEIGCCsGAQUFBwELBDYwNDAyBggrBgEFBQcw
BYYmcnN5bmM6Ly93b21iYXRzLXItdXMuaGFjdHJuLm5ldC9JU1A1Yi8wDQYJKoZI
hvcNAQELBQADggEBAJY0ilgmmQeNDCT+hPsAGdbMZDkoGzNpgrcfOwyulpTW+qMA
LH73aGDjEZhchh57R0QNsOdiYOxX1upkfGZFV17Js8NUmhhZfdQuXjDNqEFRIYOt
srEnTaHnciVD8zRQWt1nTnK6+lptyaoBZ7VxSijuHudfJ1kRvu4l86WyLo+abRlU
FwuXqUpJv8NEPnN9kwP24qGxfAqlYrVcnpzH8T/O8zUrRzDm9KSzJ543CB/a1awZ
6Lpyq4X+wcnSzHXyYrw3If8P349/bgfGj4SAFkodo/4oeLoQmq3vA/kKwLn+IPdt
STDAJuNjjfNtiGqzdCiio1wuTiwfRtNKxbFvqgY=
-----END CERTIFICATE-----
