Certificate:
    Data:
        Version: 3 (0x2)
        Serial Number: 20 (0x14)
        Signature Algorithm: sha256WithRSAEncryption
        Issuer: CN=TEST ENTITY RIR
        Validity
            Not Before: Aug 10 00:58:17 2007 GMT
            Not After : Aug  9 00:58:17 2008 GMT
        Subject: CN=TEST ENTITY LIR3
        Subject Public Key Info:
            Public Key Algorithm: rsaEncryption
            RSA Public Key: (2048 bit)
                Modulus (2048 bit):
                    00:a3:21:57:61:64:af:11:18:d4:cb:de:a6:dc:ad:
                    d9:2c:0f:0f:58:9f:7e:c8:85:55:11:26:4c:7c:f0:
                    6b:68:1a:9e:6a:0c:8f:e6:dc:3d:83:58:2a:cc:77:
                    ac:19:73:6f:5a:f3:6e:24:ac:cd:1a:dc:1d:0b:4c:
                    44:f5:6d:8b:0a:17:3d:86:f9:e8:fe:e6:60:e5:9f:
                    40:6a:e5:94:e8:9a:56:17:17:1c:ab:c1:8c:37:40:
                    2b:55:bf:2c:5e:dc:8d:ca:25:7f:8a:5f:ee:fb:16:
                    86:eb:e0:08:d3:26:e5:e3:70:c5:0c:6b:fb:1b:8f:
                    6b:5c:f6:e2:4a:58:a5:35:01:ea:05:1b:3e:ce:84:
                    be:b5:3f:6d:18:16:4b:68:e5:79:4c:88:7d:b6:a5:
                    65:a3:3a:c2:32:dc:ad:8f:8a:05:ee:f6:e9:7a:80:
                    da:12:a9:0f:5a:b5:d2:d3:31:ac:3e:d3:19:25:2d:
                    28:de:79:6c:ce:fd:77:66:d5:e3:2f:a9:cb:f9:85:
                    8c:20:bb:a2:86:23:f0:93:95:20:04:78:c7:c7:07:
                    a6:fe:f0:f4:45:bb:cf:78:2b:dd:ce:9c:08:a5:46:
                    68:10:4c:d7:05:62:6c:86:5a:2d:7f:06:38:c2:4d:
                    bb:44:87:00:43:79:d2:8f:f3:6b:b2:f4:5c:1c:b9:
                    68:01
                Exponent: 65537 (0x10001)
        X509v3 extensions:
            X509v3 Basic Constraints: critical
                CA:TRUE
            X509v3 Subject Key Identifier: 
                98:BE:04:FF:80:D1:AB:95:39:AA:3D:F2:0E:67:7D:00:AD:A3:FD:C5
            X509v3 Key Usage: critical
                Certificate Sign, CRL Sign
            Subject Information Access: 
                1.3.6.1.5.5.7.48.5 - URI:rsync://wombats-r-us.hactrn.net/LIR3/

    Signature Algorithm: sha256WithRSAEncryption
        5a:9b:65:02:d5:6c:fc:4f:b2:df:3b:a8:a2:44:3b:fd:bc:4d:
        9f:32:30:e7:4f:e6:44:37:3f:35:68:d0:7e:ee:a5:cc:6e:0a:
        79:2d:6a:2d:35:45:13:ed:f8:67:fb:5b:41:fa:00:04:f5:28:
        d4:72:0e:fe:05:d6:76:20:cf:4b:15:13:05:6c:9f:aa:05:8c:
        77:eb:e7:1d:57:ed:32:11:45:ba:3e:e8:53:68:85:98:bd:bf:
        56:7e:04:85:f1:7f:70:ba:e8:16:03:46:ff:c5:be:df:42:79:
        57:01:2f:1a:e2:bc:6b:79:3e:fa:79:ec:08:ca:7d:32:02:0c:
        94:47:9e:c8:01:60:de:b9:43:76:be:22:64:89:47:d7:b9:63:
        9f:1d:7d:c8:93:e6:48:2a:a6:f7:51:9c:bd:06:8a:c9:01:5d:
        51:83:85:09:1a:18:03:49:10:e9:fa:80:0a:d1:7c:2c:69:c0:
        6b:53:e6:97:24:cd:f1:ad:e2:b6:5f:ac:72:28:0c:e8:cb:ab:
        00:15:29:9e:cb:af:74:1e:dc:3b:c6:24:bc:2d:50:e3:12:fc:
        00:63:ec:b6:09:c9:27:33:d6:42:a2:87:d4:35:48:63:16:1a:
        e0:f7:50:ed:e3:d9:11:d9:f1:1c:cd:a5:21:e0:56:ad:4d:fc:
        da:a6:97:e9
-----BEGIN CERTIFICATE-----
MIIDNzCCAh+gAwIBAgIBFDANBgkqhkiG9w0BAQsFADAaMRgwFgYDVQQDEw9URVNU
IEVOVElUWSBSSVIwHhcNMDcwODEwMDA1ODE3WhcNMDgwODA5MDA1ODE3WjAbMRkw
FwYDVQQDExBURVNUIEVOVElUWSBMSVIzMIIBIjANBgkqhkiG9w0BAQEFAAOCAQ8A
MIIBCgKCAQEAoyFXYWSvERjUy96m3K3ZLA8PWJ9+yIVVESZMfPBraBqeagyP5tw9
g1gqzHesGXNvWvNuJKzNGtwdC0xE9W2LChc9hvno/uZg5Z9AauWU6JpWFxccq8GM
N0ArVb8sXtyNyiV/il/u+xaG6+AI0ybl43DFDGv7G49rXPbiSlilNQHqBRs+zoS+
tT9tGBZLaOV5TIh9tqVlozrCMtytj4oF7vbpeoDaEqkPWrXS0zGsPtMZJS0o3nls
zv13ZtXjL6nL+YWMILuihiPwk5UgBHjHxwem/vD0RbvPeCvdzpwIpUZoEEzXBWJs
hlotfwY4wk27RIcAQ3nSj/NrsvRcHLloAQIDAQABo4GGMIGDMA8GA1UdEwEB/wQF
MAMBAf8wHQYDVR0OBBYEFJi+BP+A0auVOao98g5nfQCto/3FMA4GA1UdDwEB/wQE
AwIBBjBBBggrBgEFBQcBCwQ1MDMwMQYIKwYBBQUHMAWGJXJzeW5jOi8vd29tYmF0
cy1yLXVzLmhhY3Rybi5uZXQvTElSMy8wDQYJKoZIhvcNAQELBQADggEBAFqbZQLV
bPxPst87qKJEO/28TZ8yMOdP5kQ3PzVo0H7upcxuCnktai01RRPt+Gf7W0H6AAT1
KNRyDv4F1nYgz0sVEwVsn6oFjHfr5x1X7TIRRbo+6FNohZi9v1Z+BIXxf3C66BYD
Rv/Fvt9CeVcBLxrivGt5Pvp57AjKfTICDJRHnsgBYN65Q3a+ImSJR9e5Y58dfciT
5kgqpvdRnL0GiskBXVGDhQkaGANJEOn6gArRfCxpwGtT5pckzfGt4rZfrHIoDOjL
qwAVKZ7Lr3Qe3DvGJLwtUOMS/ABj7LYJyScz1kKih9Q1SGMWGuD3UO3j2RHZ8RzN
pSHgVq1N/Nqml+k=
-----END CERTIFICATE-----
