Certificate:
    Data:
        Version: 3 (0x2)
        Serial Number: 21 (0x15)
        Signature Algorithm: sha256WithRSAEncryption
        Issuer: CN=TEST ENTITY RIR
        Validity
            Not Before: Aug 10 00:58:17 2007 GMT
            Not After : Aug  9 00:58:17 2008 GMT
        Subject: CN=TEST ENTITY LIR2
        Subject Public Key Info:
            Public Key Algorithm: rsaEncryption
            RSA Public Key: (2048 bit)
                Modulus (2048 bit):
                    00:f1:18:b6:79:0b:35:c5:83:64:48:83:31:03:9e:
                    e7:72:28:65:b1:ac:61:e1:77:2e:c0:4d:f0:b1:1c:
                    61:d8:cc:5a:2d:c7:0b:9b:78:7a:3e:fd:37:ad:fa:
                    b0:73:0b:9c:fc:bb:6f:60:ea:38:ef:ae:d1:27:b8:
                    81:59:0f:b3:e7:d0:67:b2:a2:f5:4f:e2:04:c6:cc:
                    13:9f:33:28:35:96:7a:db:ce:ac:9d:d3:64:3d:b8:
                    44:bc:cb:43:22:92:d6:3c:2e:bf:97:6e:39:6a:6e:
                    68:93:5d:1c:a8:58:b7:a3:7a:26:44:fe:fe:30:ad:
                    e2:05:89:4c:c9:ef:2c:e0:4e:31:69:3f:dd:91:1c:
                    f0:b0:25:4c:3e:84:8a:ea:5e:03:b3:a8:cd:90:1a:
                    1e:c8:e0:af:fe:11:ed:21:06:bd:3c:5e:08:a1:93:
                    e2:41:43:43:38:d3:21:b3:4c:fa:85:8b:43:57:60:
                    5d:bb:a0:78:e5:33:47:a8:33:76:be:df:6e:63:61:
                    e3:31:8b:5d:8e:0c:c7:f5:c8:91:0c:be:57:c7:f2:
                    bc:be:0b:ba:7a:1f:f6:19:f1:eb:00:74:c1:12:c2:
                    dc:2b:2e:8d:f0:0a:ff:7f:e8:60:08:90:ba:51:fc:
                    d0:90:11:37:f3:9e:44:b6:64:43:69:5d:61:d3:e1:
                    8d:77
                Exponent: 65537 (0x10001)
        X509v3 extensions:
            X509v3 Basic Constraints: critical
                CA:TRUE
            X509v3 Subject Key Identifier: 
                03:7A:DF:0C:DF:DC:93:3D:F7:A5:CC:27:7B:DC:22:F6:E9:55:97:F0
            X509v3 Key Usage: critical
                Certificate Sign, CRL Sign
            Subject Information Access: 
                1.3.6.1.5.5.7.48.5 - URI:rsync://wombats-r-us.hactrn.net/LIR2/

    Signature Algorithm: sha256WithRSAEncryption
        6f:1a:6a:59:42:4b:0d:64:9e:e4:6e:80:ae:d4:ed:00:cc:52:
        eb:04:bf:e2:48:2e:24:89:bd:df:a9:cf:93:27:47:80:c5:d6:
        e1:94:f5:4a:d0:f7:52:48:49:c3:2a:20:de:87:76:e1:a0:11:
        d5:a0:19:f5:70:df:45:1c:72:47:6b:af:5b:53:5d:1d:49:5a:
        62:21:f9:3b:49:18:9d:b1:6c:53:6d:9d:85:2c:fc:83:72:ff:
        b7:7d:4f:01:36:41:df:a3:03:51:34:e2:5e:25:65:4c:d1:25:
        f8:e3:92:06:7a:ca:97:42:6c:60:58:05:54:f5:9d:b9:90:fc:
        ae:32:a3:c5:dc:db:75:55:97:2e:db:1a:32:65:44:e6:ab:81:
        14:b2:e1:8c:c5:a5:09:a4:07:2e:ed:ee:44:28:6a:29:0e:6f:
        a0:08:aa:2a:28:24:e8:cf:7f:22:db:56:b4:fc:45:26:13:9a:
        41:55:5c:81:31:b3:6d:d0:3e:cc:62:6d:d1:d8:b9:2a:0f:2b:
        58:40:7a:e0:02:d2:31:4c:4f:df:c5:2c:d1:ba:c9:8c:e3:b9:
        74:7e:5c:dd:a5:f8:75:93:fe:26:69:52:70:bd:2e:01:1a:37:
        d1:53:ae:80:d5:5b:56:0c:72:e4:c6:ba:7b:3f:99:2a:bf:a7:
        b0:d7:3b:ec
-----BEGIN CERTIFICATE-----
MIIDNzCCAh+gAwIBAgIBFTANBgkqhkiG9w0BAQsFADAaMRgwFgYDVQQDEw9URVNU
IEVOVElUWSBSSVIwHhcNMDcwODEwMDA1ODE3WhcNMDgwODA5MDA1ODE3WjAbMRkw
FwYDVQQDExBURVNUIEVOVElUWSBMSVIyMIIBIjANBgkqhkiG9w0BAQEFAAOCAQ8A
MIIBCgKCAQEA8Ri2eQs1xYNkSIMxA57ncihlsaxh4XcuwE3wsRxh2MxaLccLm3h6
Pv03rfqwcwuc/LtvYOo4767RJ7iBWQ+z59BnsqL1T+IExswTnzMoNZZ6286sndNk
PbhEvMtDIpLWPC6/l245am5ok10cqFi3o3omRP7+MK3iBYlMye8s4E4xaT/dkRzw
sCVMPoSK6l4Ds6jNkBoeyOCv/hHtIQa9PF4IoZPiQUNDONMhs0z6hYtDV2Bdu6B4
5TNHqDN2vt9uY2HjMYtdjgzH9ciRDL5Xx/K8vgu6eh/2GfHrAHTBEsLcKy6N8Ar/
f+hgCJC6UfzQkBE3855EtmRDaV1h0+GNdwIDAQABo4GGMIGDMA8GA1UdEwEB/wQF
MAMBAf8wHQYDVR0OBBYEFAN63wzf3JM996XMJ3vcIvbpVZfwMA4GA1UdDwEB/wQE
AwIBBjBBBggrBgEFBQcBCwQ1MDMwMQYIKwYBBQUHMAWGJXJzeW5jOi8vd29tYmF0
cy1yLXVzLmhhY3Rybi5uZXQvTElSMi8wDQYJKoZIhvcNAQELBQADggEBAG8aallC
Sw1knuRugK7U7QDMUusEv+JILiSJvd+pz5MnR4DF1uGU9UrQ91JIScMqIN6HduGg
EdWgGfVw30Ucckdrr1tTXR1JWmIh+TtJGJ2xbFNtnYUs/INy/7d9TwE2Qd+jA1E0
4l4lZUzRJfjjkgZ6ypdCbGBYBVT1nbmQ/K4yo8Xc23VVly7bGjJlROargRSy4YzF
pQmkBy7t7kQoaikOb6AIqiooJOjPfyLbVrT8RSYTmkFVXIExs23QPsxibdHYuSoP
K1hAeuAC0jFMT9/FLNG6yYzjuXR+XN2l+HWT/iZpUnC9LgEaN9FTroDVW1YMcuTG
uns/mSq/p7DXO+w=
-----END CERTIFICATE-----
