Certificate:
    Data:
        Version: 3 (0x2)
        Serial Number: 22 (0x16)
        Signature Algorithm: sha256WithRSAEncryption
        Issuer: CN=TEST ENTITY RIR
        Validity
            Not Before: Aug 10 00:58:17 2007 GMT
            Not After : Aug  9 00:58:17 2008 GMT
        Subject: CN=TEST ENTITY LIR1
        Subject Public Key Info:
            Public Key Algorithm: rsaEncryption
            RSA Public Key: (2048 bit)
                Modulus (2048 bit):
                    00:af:5d:1c:f9:d9:bb:d5:01:e1:5b:36:cc:51:f6:
                    fd:86:57:60:aa:9e:c7:ec:4e:05:af:fb:51:5c:7a:
                    c2:58:c4:a8:57:ae:14:62:e9:bc:b6:72:7d:cf:49:
                    c8:4a:40:82:4a:f4:3e:30:b5:94:25:9e:6c:78:81:
                    57:43:d6:85:02:8d:d1:9c:b5:d7:34:2f:e2:a9:7d:
                    18:27:b5:47:9a:42:16:c8:90:7f:96:2c:dd:b8:98:
                    17:1f:77:62:4a:08:00:2d:e0:73:0c:39:37:ba:0f:
                    a7:59:59:4c:7c:cd:e2:5c:d7:98:36:10:6c:88:3e:
                    45:99:a6:88:2f:f6:7f:31:49:ba:42:2b:13:79:c2:
                    b2:f1:09:d9:ad:37:a4:41:b6:6d:46:a1:18:05:a0:
                    53:07:8e:e0:98:b2:d1:fd:67:68:77:64:d5:f3:fe:
                    1d:22:36:9e:26:5a:1a:aa:18:94:c3:2c:7e:9a:af:
                    be:2c:9d:5e:75:2c:49:d6:37:2b:06:1f:cc:63:97:
                    7e:ee:2c:5f:67:af:4d:62:3e:7a:1f:0c:e1:1e:02:
                    f2:d2:06:75:ae:3f:11:bc:8e:0f:13:64:38:14:36:
                    1d:5d:02:ec:af:65:d5:b9:68:f4:22:66:2b:ef:47:
                    5b:ad:3b:f2:af:b6:71:0c:94:56:8a:7c:01:36:f0:
                    3a:3f
                Exponent: 65537 (0x10001)
        X509v3 extensions:
            X509v3 Basic Constraints: critical
                CA:TRUE
            X509v3 Subject Key Identifier: 
                8A:94:17:F9:53:F2:5B:94:54:56:DF:76:51:13:29:F6:71:19:A8:B3
            X509v3 Key Usage: critical
                Certificate Sign, CRL Sign
            Subject Information Access: 
                1.3.6.1.5.5.7.48.5 - URI:rsync://wombats-r-us.hactrn.net/LIR1/

    Signature Algorithm: sha256WithRSAEncryption
        45:76:2c:fa:d1:3b:02:23:5f:e3:3f:07:7e:ad:92:c0:7d:ba:
        8b:6d:ff:3c:33:c2:d4:06:4d:ca:71:41:6a:36:a2:e3:3a:34:
        0c:9e:b1:21:a2:17:91:3b:e9:e3:50:57:25:2e:dc:4f:1a:67:
        30:52:3e:36:04:0a:ce:03:84:f6:b0:1b:1c:59:66:4b:d1:68:
        5a:cf:3b:7d:f4:28:74:6d:16:ba:7c:ad:5c:f0:6a:39:73:33:
        fe:c0:8d:d7:55:c0:cb:df:f3:d4:51:34:fe:62:42:97:70:61:
        bd:cc:bc:1c:c7:37:5f:d4:f1:2b:cb:3b:11:4c:84:77:db:5e:
        66:2d:37:71:d5:f5:91:01:be:4e:97:8b:ae:6e:83:9a:9a:e3:
        d8:47:a9:fc:7f:b3:80:67:c1:60:60:3e:66:64:e8:ae:d8:7a:
        72:50:fd:59:75:dd:fd:f0:69:92:ce:f6:c9:cc:49:72:eb:70:
        48:28:e7:f7:1c:d4:a0:75:40:ef:50:f4:9f:e4:74:26:e5:90:
        ae:c4:fb:c5:b9:0a:5f:da:61:c2:78:f4:0d:0b:b8:ed:28:d9:
        b7:26:6a:8f:1d:43:22:72:f3:a6:3c:36:d8:40:9f:d7:49:68:
        d0:af:64:48:f8:69:55:98:9c:e9:47:5b:1b:15:06:5f:60:80:
        e9:e2:72:f7
-----BEGIN CERTIFICATE-----
MIIDNzCCAh+gAwIBAgIBFjANBgkqhkiG9w0BAQsFADAaMRgwFgYDVQQDEw9URVNU
IEVOVElUWSBSSVIwHhcNMDcwODEwMDA1ODE3WhcNMDgwODA5MDA1ODE3WjAbMRkw
FwYDVQQDExBURVNUIEVOVElUWSBMSVIxMIIBIjANBgkqhkiG9w0BAQEFAAOCAQ8A
MIIBCgKCAQEAr10c+dm71QHhWzbMUfb9hldgqp7H7E4Fr/tRXHrCWMSoV64UYum8
tnJ9z0nISkCCSvQ+MLWUJZ5seIFXQ9aFAo3RnLXXNC/iqX0YJ7VHmkIWyJB/lizd
uJgXH3diSggALeBzDDk3ug+nWVlMfM3iXNeYNhBsiD5FmaaIL/Z/MUm6QisTecKy
8QnZrTekQbZtRqEYBaBTB47gmLLR/Wdod2TV8/4dIjaeJloaqhiUwyx+mq++LJ1e
dSxJ1jcrBh/MY5d+7ixfZ69NYj56HwzhHgLy0gZ1rj8RvI4PE2Q4FDYdXQLsr2XV
uWj0ImYr70dbrTvyr7ZxDJRWinwBNvA6PwIDAQABo4GGMIGDMA8GA1UdEwEB/wQF
MAMBAf8wHQYDVR0OBBYEFIqUF/lT8luUVFbfdlETKfZxGaizMA4GA1UdDwEB/wQE
AwIBBjBBBggrBgEFBQcBCwQ1MDMwMQYIKwYBBQUHMAWGJXJzeW5jOi8vd29tYmF0
cy1yLXVzLmhhY3Rybi5uZXQvTElSMS8wDQYJKoZIhvcNAQELBQADggEBAEV2LPrR
OwIjX+M/B36tksB9uott/zwzwtQGTcpxQWo2ouM6NAyesSGiF5E76eNQVyUu3E8a
ZzBSPjYECs4DhPawGxxZZkvRaFrPO330KHRtFrp8rVzwajlzM/7AjddVwMvf89RR
NP5iQpdwYb3MvBzHN1/U8SvLOxFMhHfbXmYtN3HV9ZEBvk6Xi65ug5qa49hHqfx/
s4BnwWBgPmZk6K7YenJQ/Vl13f3waZLO9snMSXLrcEgo5/cc1KB1QO9Q9J/kdCbl
kK7E+8W5Cl/aYcJ49A0LuO0o2bcmao8dQyJy86Y8NthAn9dJaNCvZEj4aVWYnOlH
WxsVBl9ggOnicvc=
-----END CERTIFICATE-----
