Certificate:
    Data:
        Version: 3 (0x2)
        Serial Number: 32 (0x20)
        Signature Algorithm: sha256WithRSAEncryption
        Issuer: CN=TEST ENTITY RIR
        Validity
            Not Before: Aug 10 01:13:39 2007 GMT
            Not After : Aug  9 01:13:39 2008 GMT
        Subject: CN=TEST ENTITY LIR3
        Subject Public Key Info:
            Public Key Algorithm: rsaEncryption
            RSA Public Key: (2048 bit)
                Modulus (2048 bit):
                    00:a3:21:57:61:64:af:11:18:d4:cb:de:a6:dc:ad:
                    d9:2c:0f:0f:58:9f:7e:c8:85:55:11:26:4c:7c:f0:
                    6b:68:1a:9e:6a:0c:8f:e6:dc:3d:83:58:2a:cc:77:
                    ac:19:73:6f:5a:f3:6e:24:ac:cd:1a:dc:1d:0b:4c:
                    44:f5:6d:8b:0a:17:3d:86:f9:e8:fe:e6:60:e5:9f:
                    40:6a:e5:94:e8:9a:56:17:17:1c:ab:c1:8c:37:40:
                    2b:55:bf:2c:5e:dc:8d:ca:25:7f:8a:5f:ee:fb:16:
                    86:eb:e0:08:d3:26:e5:e3:70:c5:0c:6b:fb:1b:8f:
                    6b:5c:f6:e2:4a:58:a5:35:01:ea:05:1b:3e:ce:84:
                    be:b5:3f:6d:18:16:4b:68:e5:79:4c:88:7d:b6:a5:
                    65:a3:3a:c2:32:dc:ad:8f:8a:05:ee:f6:e9:7a:80:
                    da:12:a9:0f:5a:b5:d2:d3:31:ac:3e:d3:19:25:2d:
                    28:de:79:6c:ce:fd:77:66:d5:e3:2f:a9:cb:f9:85:
                    8c:20:bb:a2:86:23:f0:93:95:20:04:78:c7:c7:07:
                    a6:fe:f0:f4:45:bb:cf:78:2b:dd:ce:9c:08:a5:46:
                    68:10:4c:d7:05:62:6c:86:5a:2d:7f:06:38:c2:4d:
                    bb:44:87:00:43:79:d2:8f:f3:6b:b2:f4:5c:1c:b9:
                    68:01
                Exponent: 65537 (0x10001)
        X509v3 extensions:
            X509v3 Basic Constraints: critical
                CA:TRUE
            X509v3 Key Usage: critical
                Certificate Sign, CRL Sign
            Subject Information Access: 
                1.3.6.1.5.5.7.48.5 - URI:rsync://wombats-r-us.hactrn.net/LIR3/

    Signature Algorithm: sha256WithRSAEncryption
        21:11:08:a5:7c:20:fa:f3:da:ce:31:cd:f4:f4:e2:dc:46:9c:
        7c:3f:b0:02:04:9c:f8:2e:63:c9:d6:2d:8c:01:44:ea:99:5e:
        50:e2:33:f0:20:0b:df:3d:a5:59:2d:16:d7:e7:8f:3b:f0:84:
        57:d0:23:a3:52:7c:27:34:af:62:b3:97:aa:c4:21:93:8d:34:
        8d:56:9b:8e:b5:b7:da:24:46:e8:2f:e7:b5:f3:92:2b:46:21:
        b2:b2:1f:7a:c2:be:f4:af:5d:1b:18:bb:39:3c:ee:e3:18:25:
        22:b4:fd:72:0c:4c:5a:e2:99:75:28:9b:9c:81:a1:da:64:83:
        cf:26:22:99:d8:77:b4:6a:80:84:5d:cc:cb:62:5c:f5:00:dc:
        72:14:33:20:90:06:20:01:ed:3a:08:28:a4:7c:e4:51:00:33:
        8b:09:8a:bc:8a:fa:f0:81:a9:ae:69:a6:e6:df:4c:4d:08:47:
        cf:46:6f:03:eb:7e:85:86:34:9a:0d:18:51:24:39:cf:47:23:
        25:b3:6e:27:3f:f9:59:7e:da:e0:bf:08:e5:8f:55:f0:cf:e4:
        c5:c1:f4:a9:91:ae:09:3e:41:1b:f0:76:2d:0f:a8:4d:05:8d:
        3c:3e:81:81:ec:6c:62:2d:3a:63:81:12:b2:36:23:ed:25:8c:
        b5:f4:3d:e1
-----BEGIN CERTIFICATE-----
MIIDFjCCAf6gAwIBAgIBIDANBgkqhkiG9w0BAQsFADAaMRgwFgYDVQQDEw9URVNU
IEVOVElUWSBSSVIwHhcNMDcwODEwMDExMzM5WhcNMDgwODA5MDExMzM5WjAbMRkw
FwYDVQQDExBURVNUIEVOVElUWSBMSVIzMIIBIjANBgkqhkiG9w0BAQEFAAOCAQ8A
MIIBCgKCAQEAoyFXYWSvERjUy96m3K3ZLA8PWJ9+yIVVESZMfPBraBqeagyP5tw9
g1gqzHesGXNvWvNuJKzNGtwdC0xE9W2LChc9hvno/uZg5Z9AauWU6JpWFxccq8GM
N0ArVb8sXtyNyiV/il/u+xaG6+AI0ybl43DFDGv7G49rXPbiSlilNQHqBRs+zoS+
tT9tGBZLaOV5TIh9tqVlozrCMtytj4oF7vbpeoDaEqkPWrXS0zGsPtMZJS0o3nls
zv13ZtXjL6nL+YWMILuihiPwk5UgBHjHxwem/vD0RbvPeCvdzpwIpUZoEEzXBWJs
hlotfwY4wk27RIcAQ3nSj/NrsvRcHLloAQIDAQABo2YwZDAPBgNVHRMBAf8EBTAD
AQH/MA4GA1UdDwEB/wQEAwIBBjBBBggrBgEFBQcBCwQ1MDMwMQYIKwYBBQUHMAWG
JXJzeW5jOi8vd29tYmF0cy1yLXVzLmhhY3Rybi5uZXQvTElSMy8wDQYJKoZIhvcN
AQELBQADggEBACERCKV8IPrz2s4xzfT04txGnHw/sAIEnPguY8nWLYwBROqZXlDi
M/AgC989pVktFtfnjzvwhFfQI6NSfCc0r2Kzl6rEIZONNI1Wm461t9okRugv57Xz
kitGIbKyH3rCvvSvXRsYuzk87uMYJSK0/XIMTFrimXUom5yBodpkg88mIpnYd7Rq
gIRdzMtiXPUA3HIUMyCQBiAB7ToIKKR85FEAM4sJiryK+vCBqa5ppubfTE0IR89G
bwPrfoWGNJoNGFEkOc9HIyWzbic/+Vl+2uC/COWPVfDP5MXB9KmRrgk+QRvwdi0P
qE0FjTw+gYHsbGItOmOBErI2I+0ljLX0PeE=
-----END CERTIFICATE-----
