Certificate:
    Data:
        Version: 3 (0x2)
        Serial Number: 34 (0x22)
        Signature Algorithm: sha256WithRSAEncryption
        Issuer: CN=TEST ENTITY RIR
        Validity
            Not Before: Aug 10 01:13:39 2007 GMT
            Not After : Aug  9 01:13:39 2008 GMT
        Subject: CN=TEST ENTITY LIR1
        Subject Public Key Info:
            Public Key Algorithm: rsaEncryption
            RSA Public Key: (2048 bit)
                Modulus (2048 bit):
                    00:af:5d:1c:f9:d9:bb:d5:01:e1:5b:36:cc:51:f6:
                    fd:86:57:60:aa:9e:c7:ec:4e:05:af:fb:51:5c:7a:
                    c2:58:c4:a8:57:ae:14:62:e9:bc:b6:72:7d:cf:49:
                    c8:4a:40:82:4a:f4:3e:30:b5:94:25:9e:6c:78:81:
                    57:43:d6:85:02:8d:d1:9c:b5:d7:34:2f:e2:a9:7d:
                    18:27:b5:47:9a:42:16:c8:90:7f:96:2c:dd:b8:98:
                    17:1f:77:62:4a:08:00:2d:e0:73:0c:39:37:ba:0f:
                    a7:59:59:4c:7c:cd:e2:5c:d7:98:36:10:6c:88:3e:
                    45:99:a6:88:2f:f6:7f:31:49:ba:42:2b:13:79:c2:
                    b2:f1:09:d9:ad:37:a4:41:b6:6d:46:a1:18:05:a0:
                    53:07:8e:e0:98:b2:d1:fd:67:68:77:64:d5:f3:fe:
                    1d:22:36:9e:26:5a:1a:aa:18:94:c3:2c:7e:9a:af:
                    be:2c:9d:5e:75:2c:49:d6:37:2b:06:1f:cc:63:97:
                    7e:ee:2c:5f:67:af:4d:62:3e:7a:1f:0c:e1:1e:02:
                    f2:d2:06:75:ae:3f:11:bc:8e:0f:13:64:38:14:36:
                    1d:5d:02:ec:af:65:d5:b9:68:f4:22:66:2b:ef:47:
                    5b:ad:3b:f2:af:b6:71:0c:94:56:8a:7c:01:36:f0:
                    3a:3f
                Exponent: 65537 (0x10001)
        X509v3 extensions:
            X509v3 Basic Constraints: critical
                CA:TRUE
            X509v3 Key Usage: critical
                Certificate Sign, CRL Sign
            Subject Information Access: 
                1.3.6.1.5.5.7.48.5 - URI:rsync://wombats-r-us.hactrn.net/LIR1/

    Signature Algorithm: sha256WithRSAEncryption
        64:a2:b2:a2:9e:50:69:0e:9f:15:f1:85:10:e8:5e:bf:22:c0:
        2e:4c:58:1c:43:c8:ba:7d:3d:67:8c:a6:94:99:b0:fc:ec:2c:
        e2:0c:69:a7:d6:9e:35:b7:06:bd:d0:30:9a:ba:c9:1c:49:96:
        ee:06:68:45:e3:ed:48:4d:7a:c0:68:4f:57:52:e6:e7:f1:1c:
        14:58:d5:a2:da:d0:19:c5:e9:c4:63:4f:bc:3b:10:8b:2e:fe:
        b7:95:8a:f4:7e:00:ac:f8:5b:dc:4e:70:81:d7:9e:d8:4b:e8:
        89:03:05:3e:11:dc:8f:7a:45:a3:14:78:5f:9d:dc:fe:7f:fd:
        4a:b0:bb:33:e0:7c:46:f4:e3:df:f7:2b:9e:64:44:ba:39:b0:
        d4:72:a3:cf:35:55:ae:04:29:ed:d8:23:22:b0:a3:16:d2:5d:
        69:b9:c6:5a:e5:53:42:71:2b:5e:37:e1:1e:26:42:ce:29:23:
        64:2e:51:fd:a9:e4:9b:20:65:b1:f1:c2:ce:14:56:10:68:2f:
        fc:f3:eb:55:6d:d7:a0:0e:1a:0c:52:4a:81:47:e6:34:1f:9e:
        3a:c5:38:2e:e6:f2:43:bf:f8:e3:cb:cd:44:83:4f:7c:fb:69:
        a9:41:96:d6:50:22:b7:3c:06:e0:09:ff:34:cb:41:f6:17:97:
        86:7d:f0:c5
-----BEGIN CERTIFICATE-----
MIIDFjCCAf6gAwIBAgIBIjANBgkqhkiG9w0BAQsFADAaMRgwFgYDVQQDEw9URVNU
IEVOVElUWSBSSVIwHhcNMDcwODEwMDExMzM5WhcNMDgwODA5MDExMzM5WjAbMRkw
FwYDVQQDExBURVNUIEVOVElUWSBMSVIxMIIBIjANBgkqhkiG9w0BAQEFAAOCAQ8A
MIIBCgKCAQEAr10c+dm71QHhWzbMUfb9hldgqp7H7E4Fr/tRXHrCWMSoV64UYum8
tnJ9z0nISkCCSvQ+MLWUJZ5seIFXQ9aFAo3RnLXXNC/iqX0YJ7VHmkIWyJB/lizd
uJgXH3diSggALeBzDDk3ug+nWVlMfM3iXNeYNhBsiD5FmaaIL/Z/MUm6QisTecKy
8QnZrTekQbZtRqEYBaBTB47gmLLR/Wdod2TV8/4dIjaeJloaqhiUwyx+mq++LJ1e
dSxJ1jcrBh/MY5d+7ixfZ69NYj56HwzhHgLy0gZ1rj8RvI4PE2Q4FDYdXQLsr2XV
uWj0ImYr70dbrTvyr7ZxDJRWinwBNvA6PwIDAQABo2YwZDAPBgNVHRMBAf8EBTAD
AQH/MA4GA1UdDwEB/wQEAwIBBjBBBggrBgEFBQcBCwQ1MDMwMQYIKwYBBQUHMAWG
JXJzeW5jOi8vd29tYmF0cy1yLXVzLmhhY3Rybi5uZXQvTElSMS8wDQYJKoZIhvcN
AQELBQADggEBAGSisqKeUGkOnxXxhRDoXr8iwC5MWBxDyLp9PWeMppSZsPzsLOIM
aafWnjW3Br3QMJq6yRxJlu4GaEXj7UhNesBoT1dS5ufxHBRY1aLa0BnF6cRjT7w7
EIsu/reVivR+AKz4W9xOcIHXnthL6IkDBT4R3I96RaMUeF+d3P5//UqwuzPgfEb0
49/3K55kRLo5sNRyo881Va4EKe3YIyKwoxbSXWm5xlrlU0JxK1434R4mQs4pI2Qu
Uf2p5JsgZbHxws4UVhBoL/zz61Vt16AOGgxSSoFH5jQfnjrFOC7m8kO/+OPLzUSD
T3z7aalBltZQIrc8BuAJ/zTLQfYXl4Z98MU=
-----END CERTIFICATE-----
