Certificate:
    Data:
        Version: 3 (0x2)
        Serial Number: 33 (0x21)
        Signature Algorithm: sha256WithRSAEncryption
        Issuer: CN=TEST ENTITY RIR
        Validity
            Not Before: Aug 10 01:13:39 2007 GMT
            Not After : Aug  9 01:13:39 2008 GMT
        Subject: CN=TEST ENTITY LIR2
        Subject Public Key Info:
            Public Key Algorithm: rsaEncryption
            RSA Public Key: (2048 bit)
                Modulus (2048 bit):
                    00:f1:18:b6:79:0b:35:c5:83:64:48:83:31:03:9e:
                    e7:72:28:65:b1:ac:61:e1:77:2e:c0:4d:f0:b1:1c:
                    61:d8:cc:5a:2d:c7:0b:9b:78:7a:3e:fd:37:ad:fa:
                    b0:73:0b:9c:fc:bb:6f:60:ea:38:ef:ae:d1:27:b8:
                    81:59:0f:b3:e7:d0:67:b2:a2:f5:4f:e2:04:c6:cc:
                    13:9f:33:28:35:96:7a:db:ce:ac:9d:d3:64:3d:b8:
                    44:bc:cb:43:22:92:d6:3c:2e:bf:97:6e:39:6a:6e:
                    68:93:5d:1c:a8:58:b7:a3:7a:26:44:fe:fe:30:ad:
                    e2:05:89:4c:c9:ef:2c:e0:4e:31:69:3f:dd:91:1c:
                    f0:b0:25:4c:3e:84:8a:ea:5e:03:b3:a8:cd:90:1a:
                    1e:c8:e0:af:fe:11:ed:21:06:bd:3c:5e:08:a1:93:
                    e2:41:43:43:38:d3:21:b3:4c:fa:85:8b:43:57:60:
                    5d:bb:a0:78:e5:33:47:a8:33:76:be:df:6e:63:61:
                    e3:31:8b:5d:8e:0c:c7:f5:c8:91:0c:be:57:c7:f2:
                    bc:be:0b:ba:7a:1f:f6:19:f1:eb:00:74:c1:12:c2:
                    dc:2b:2e:8d:f0:0a:ff:7f:e8:60:08:90:ba:51:fc:
                    d0:90:11:37:f3:9e:44:b6:64:43:69:5d:61:d3:e1:
                    8d:77
                Exponent: 65537 (0x10001)
        X509v3 extensions:
            X509v3 Basic Constraints: critical
                CA:TRUE
            X509v3 Key Usage: critical
                Certificate Sign, CRL Sign
            Subject Information Access: 
                1.3.6.1.5.5.7.48.5 - URI:rsync://wombats-r-us.hactrn.net/LIR2/

    Signature Algorithm: sha256WithRSAEncryption
        69:44:b7:68:fa:e8:4a:16:7e:93:63:18:39:f4:3b:12:19:62:
        6b:9a:b8:2e:cf:b4:26:a7:fc:e1:01:9a:c9:33:00:34:47:76:
        24:1d:c3:09:65:fb:d4:68:31:47:ca:e8:07:20:6f:af:fe:ad:
        28:19:d5:12:31:d7:dd:60:3f:35:6d:fd:02:7a:a6:99:42:d5:
        f4:c7:42:34:8f:53:20:a2:fb:8c:f6:87:97:c9:81:95:09:02:
        a5:60:ad:0c:2d:01:15:8a:92:16:34:d6:5b:2e:ac:95:4f:93:
        04:27:ac:47:d8:f4:48:53:36:bc:2a:77:4b:16:f9:21:be:a4:
        85:65:62:9d:75:68:dd:95:fb:0f:74:2d:e0:be:4a:8b:86:88:
        03:fa:e4:58:a9:46:51:26:b4:d7:5c:a8:cf:6a:29:86:be:68:
        66:46:e0:92:b2:18:9a:14:e9:c0:02:51:68:31:9c:17:75:ac:
        86:b1:e1:41:d7:22:4d:9c:ef:55:4d:2a:85:0b:62:e6:b2:5c:
        04:8e:09:21:0a:a7:f6:cd:1e:f3:00:20:71:01:55:cf:7d:a0:
        03:85:82:49:7e:7a:e0:ba:a8:c8:e7:43:a7:29:08:f7:b6:ad:
        fe:f7:4a:69:a5:03:47:87:c5:87:bd:f1:86:6e:ea:5b:34:51:
        fe:00:a9:a7
-----BEGIN CERTIFICATE-----
MIIDFjCCAf6gAwIBAgIBITANBgkqhkiG9w0BAQsFADAaMRgwFgYDVQQDEw9URVNU
IEVOVElUWSBSSVIwHhcNMDcwODEwMDExMzM5WhcNMDgwODA5MDExMzM5WjAbMRkw
FwYDVQQDExBURVNUIEVOVElUWSBMSVIyMIIBIjANBgkqhkiG9w0BAQEFAAOCAQ8A
MIIBCgKCAQEA8Ri2eQs1xYNkSIMxA57ncihlsaxh4XcuwE3wsRxh2MxaLccLm3h6
Pv03rfqwcwuc/LtvYOo4767RJ7iBWQ+z59BnsqL1T+IExswTnzMoNZZ6286sndNk
PbhEvMtDIpLWPC6/l245am5ok10cqFi3o3omRP7+MK3iBYlMye8s4E4xaT/dkRzw
sCVMPoSK6l4Ds6jNkBoeyOCv/hHtIQa9PF4IoZPiQUNDONMhs0z6hYtDV2Bdu6B4
5TNHqDN2vt9uY2HjMYtdjgzH9ciRDL5Xx/K8vgu6eh/2GfHrAHTBEsLcKy6N8Ar/
f+hgCJC6UfzQkBE3855EtmRDaV1h0+GNdwIDAQABo2YwZDAPBgNVHRMBAf8EBTAD
AQH/MA4GA1UdDwEB/wQEAwIBBjBBBggrBgEFBQcBCwQ1MDMwMQYIKwYBBQUHMAWG
JXJzeW5jOi8vd29tYmF0cy1yLXVzLmhhY3Rybi5uZXQvTElSMi8wDQYJKoZIhvcN
AQELBQADggEBAGlEt2j66EoWfpNjGDn0OxIZYmuauC7PtCan/OEBmskzADRHdiQd
wwll+9RoMUfK6Acgb6/+rSgZ1RIx191gPzVt/QJ6pplC1fTHQjSPUyCi+4z2h5fJ
gZUJAqVgrQwtARWKkhY01lsurJVPkwQnrEfY9EhTNrwqd0sW+SG+pIVlYp11aN2V
+w90LeC+SouGiAP65FipRlEmtNdcqM9qKYa+aGZG4JKyGJoU6cACUWgxnBd1rIax
4UHXIk2c71VNKoULYuayXASOCSEKp/bNHvMAIHEBVc99oAOFgkl+euC6qMjnQ6cp
CPe2rf73SmmlA0eHxYe98YZu6ls0Uf4Aqac=
-----END CERTIFICATE-----
