Certificate:
    Data:
        Version: 3 (0x2)
        Serial Number: 4 (0x4)
        Signature Algorithm: sha256WithRSAEncryption
        Issuer: CN=TEST ENTITY LIR3
        Validity
            Not Before: Aug 10 00:58:17 2007 GMT
            Not After : Aug  9 00:58:17 2008 GMT
        Subject: CN=TEST ENTITY ISP5c
        Subject Public Key Info:
            Public Key Algorithm: rsaEncryption
            RSA Public Key: (2048 bit)
                Modulus (2048 bit):
                    00:c8:8b:a1:25:65:df:ee:a2:7f:54:af:52:0a:1a:
                    1a:fa:0d:75:b3:3c:e9:e0:29:d3:89:20:e9:51:49:
                    67:2c:43:da:a0:2c:d4:44:b3:96:14:a9:07:77:60:
                    b9:6f:01:ef:8e:54:a5:74:ac:5a:67:f8:30:4d:10:
                    f9:ac:9f:b8:75:61:0b:f6:e7:7c:ea:9b:5c:98:7a:
                    4b:3e:c4:e2:59:42:d3:19:ca:0f:58:0e:b7:c8:82:
                    4e:e5:bb:ac:fd:92:e5:88:b2:fc:64:cf:6e:38:3b:
                    18:83:fc:e7:a6:ae:fb:90:36:d0:e1:ca:4d:90:41:
                    0f:0f:3b:2a:c0:0c:d9:7b:7d:e8:50:13:f6:09:73:
                    82:a3:d2:e3:bb:82:08:87:7f:d2:bb:0e:0e:7a:28:
                    b6:25:02:b5:d9:51:fc:33:32:47:47:ff:cf:7f:bc:
                    ee:00:01:bb:05:5e:2e:03:9a:ad:95:3b:ca:c2:c6:
                    87:64:74:39:aa:59:6b:ae:e0:a7:51:1a:07:f2:8e:
                    4c:8e:65:2f:df:f2:99:ba:e0:b6:8a:4f:c0:20:72:
                    79:98:00:8f:0d:50:13:3d:d1:3e:8c:bd:dc:74:a9:
                    33:a8:56:1d:31:78:7c:e7:02:9e:8d:0a:14:12:6d:
                    d3:37:c7:7a:f0:84:10:fe:fe:4d:28:97:26:6e:08:
                    85:a1
                Exponent: 65537 (0x10001)
        X509v3 extensions:
            X509v3 Basic Constraints: critical
                CA:TRUE
            X509v3 Subject Key Identifier: 
                2D:87:C1:9A:F8:58:2B:BD:C2:F8:7E:30:47:B3:A9:88:37:C9:EB:46
            X509v3 Key Usage: critical
                Certificate Sign, CRL Sign
            Subject Information Access: 
                1.3.6.1.5.5.7.48.5 - URI:rsync://wombats-r-us.hactrn.net/ISP5c/

    Signature Algorithm: sha256WithRSAEncryption
        54:9d:09:01:1d:1f:b7:ac:f9:0a:05:b4:68:22:0d:e2:d4:b3:
        28:80:eb:2b:e9:86:2b:6a:03:e5:a7:d4:34:cd:58:fd:0d:90:
        d9:f4:1d:0d:95:ff:cf:23:1c:9d:dd:38:e4:54:4d:1f:9a:1d:
        20:8e:c0:b9:06:37:0b:06:ba:e9:6d:df:f4:07:d6:1d:2b:0b:
        c4:16:24:38:98:6e:56:85:0f:c3:43:87:af:0c:b5:90:c1:c4:
        84:96:1d:d9:d0:d0:35:fe:ff:c1:ab:38:42:70:19:bd:3e:b2:
        eb:4e:0a:20:a5:18:c0:aa:e8:8e:6b:ad:4f:51:a2:04:82:d6:
        ef:12:33:57:fb:6e:9b:a3:9b:9e:a9:49:15:cd:f1:e1:38:40:
        11:af:06:88:48:52:2e:0a:ec:9a:03:4a:1b:3f:86:cf:67:f3:
        83:34:f9:53:f7:af:8f:cb:67:1a:23:b2:0c:89:38:4a:1e:44:
        d1:25:4d:22:02:41:8a:1f:45:7d:8b:99:c1:83:90:1e:5b:f1:
        1b:ba:67:ba:c2:b8:93:2e:cd:5f:23:41:ba:f2:d5:2a:6e:33:
        1f:63:4c:ac:a5:be:fa:d9:18:13:42:71:43:2e:e2:24:5c:fb:
        25:5a:39:ab:b0:0a:81:31:51:13:65:eb:7d:0d:2b:7a:7c:3e:
        09:c0:4c:c8
-----BEGIN CERTIFICATE-----
MIIDOjCCAiKgAwIBAgIBBDANBgkqhkiG9w0BAQsFADAbMRkwFwYDVQQDExBURVNU
IEVOVElUWSBMSVIzMB4XDTA3MDgxMDAwNTgxN1oXDTA4MDgwOTAwNTgxN1owHDEa
MBgGA1UEAxMRVEVTVCBFTlRJVFkgSVNQNWMwggEiMA0GCSqGSIb3DQEBAQUAA4IB
DwAwggEKAoIBAQDIi6ElZd/uon9Ur1IKGhr6DXWzPOngKdOJIOlRSWcsQ9qgLNRE
s5YUqQd3YLlvAe+OVKV0rFpn+DBNEPmsn7h1YQv253zqm1yYeks+xOJZQtMZyg9Y
DrfIgk7lu6z9kuWIsvxkz244OxiD/OemrvuQNtDhyk2QQQ8POyrADNl7fehQE/YJ
c4Kj0uO7ggiHf9K7Dg56KLYlArXZUfwzMkdH/89/vO4AAbsFXi4Dmq2VO8rCxodk
dDmqWWuu4KdRGgfyjkyOZS/f8pm64LaKT8AgcnmYAI8NUBM90T6Mvdx0qTOoVh0x
eHznAp6NChQSbdM3x3rwhBD+/k0olyZuCIWhAgMBAAGjgYcwgYQwDwYDVR0TAQH/
BAUwAwEB/zAdBgNVHQ4EFgQULYfBmvhYK73C+H4wR7OpiDfJ60YwDgYDVR0PAQH/
BAQDAgEGMEIGCCsGAQUFBwELBDYwNDAyBggrBgEFBQcwBYYmcnN5bmM6Ly93b21i
YXRzLXItdXMuaGFjdHJuLm5ldC9JU1A1Yy8wDQYJKoZIhvcNAQELBQADggEBAFSd
CQEdH7es+QoFtGgiDeLUsyiA6yvphitqA+Wn1DTNWP0NkNn0HQ2V/88jHJ3dOORU
TR+aHSCOwLkGNwsGuult3/QH1h0rC8QWJDiYblaFD8NDh68MtZDBxISWHdnQ0DX+
/8GrOEJwGb0+sutOCiClGMCq6I5rrU9RogSC1u8SM1f7bpujm56pSRXN8eE4QBGv
BohIUi4K7JoDShs/hs9n84M0+VP3r4/LZxojsgyJOEoeRNElTSICQYofRX2LmcGD
kB5b8Ru6Z7rCuJMuzV8jQbry1SpuMx9jTKylvvrZGBNCcUMu4iRc+yVaOauwCoEx
URNl630NK3p8PgnATMg=
-----END CERTIFICATE-----
