Certificate:
    Data:
        Version: 3 (0x2)
        Serial Number: 5 (0x5)
        Signature Algorithm: sha256WithRSAEncryption
        Issuer: CN=TEST ENTITY LIR3
        Validity
            Not Before: Aug 10 00:58:17 2007 GMT
            Not After : Aug  9 00:58:17 2008 GMT
        Subject: CN=TEST ENTITY ISP5b
        Subject Public Key Info:
            Public Key Algorithm: rsaEncryption
            RSA Public Key: (2048 bit)
                Modulus (2048 bit):
                    00:bf:8f:59:d8:fc:fa:1d:04:70:29:ce:7b:01:64:
                    21:40:dc:5c:43:fe:4c:af:88:c8:62:9b:be:9c:72:
                    8f:8a:a5:34:8a:3b:23:8d:9b:8a:4f:bf:66:ac:68:
                    71:9c:fd:68:59:f5:bf:9f:4d:2e:b5:d6:e3:fa:bd:
                    f3:60:53:5c:b7:11:ac:95:0b:c0:87:cd:99:9e:94:
                    57:8d:ec:05:b8:df:aa:fc:8e:38:d3:0f:65:6d:09:
                    60:f2:e1:98:81:72:d8:51:3e:41:91:b3:10:95:f5:
                    f5:d0:f9:e5:5c:a1:85:fa:71:26:85:e3:d1:4c:02:
                    7f:14:e2:1e:4a:8a:96:68:9e:d6:16:a5:ef:ad:b5:
                    83:62:cd:23:74:7c:82:56:b4:d1:34:53:5a:8a:7a:
                    61:9f:ae:54:5b:ef:f9:56:de:87:6b:42:92:bc:49:
                    f4:b5:c3:35:07:4a:18:47:d2:92:c6:1c:16:74:74:
                    b1:e9:39:3c:53:12:05:9d:eb:dc:9c:72:2b:97:4d:
                    27:21:77:96:7d:4c:ce:79:0c:fb:a7:b8:99:6b:66:
                    20:2e:56:9c:44:b4:e3:5e:80:c4:7d:78:a1:b4:05:
                    f7:20:7d:26:1e:44:bf:5d:69:15:3c:7a:24:67:bd:
                    b9:b5:08:0f:33:4d:af:3b:2d:e7:b9:ab:1d:2b:d6:
                    fb:73
                Exponent: 65537 (0x10001)
        X509v3 extensions:
            X509v3 Basic Constraints: critical
                CA:TRUE
            X509v3 Subject Key Identifier: 
                6C:B3:65:94:FE:C6:9F:4A:50:9D:4D:8B:40:1A:A1:FD:97:17:97:92
            X509v3 Key Usage: critical
                Certificate Sign, CRL Sign
            Subject Information Access: 
                1.3.6.1.5.5.7.48.5 - URI:rsync://wombats-r-us.hactrn.net/ISP5b/

    Signature Algorithm: sha256WithRSAEncryption
        60:54:f0:88:c1:6e:25:22:90:35:05:b5:d9:a0:ca:1c:22:da:
        3e:32:f7:a2:c3:b7:31:f0:02:11:66:8f:be:be:ae:c7:69:bc:
        47:b9:ed:6e:d2:8f:b4:cc:0d:43:00:7a:3e:e0:d4:3d:08:c7:
        c3:4e:5e:40:6a:30:bb:30:7c:f4:5e:2e:e0:74:fc:5d:8e:b4:
        2f:2e:98:12:41:31:0b:4c:d3:14:f5:1d:5c:66:e3:4f:e2:e1:
        1e:cb:48:80:b2:3b:59:10:30:90:7a:cd:9c:e4:a5:14:f8:b9:
        2a:39:3b:0b:a5:5d:5b:f2:4f:93:d9:2c:fb:3e:14:1b:f1:cd:
        8b:0c:9d:85:9e:1f:7c:b1:a9:97:fd:9b:51:12:62:c9:a7:9f:
        a2:d0:86:ac:40:e5:6f:f5:57:00:df:60:5a:65:20:ae:a2:25:
        84:c3:04:d0:de:2e:15:28:22:cf:0d:d6:3a:03:70:2b:89:4e:
        72:08:00:ef:5f:fb:3f:82:6b:5b:a1:55:4f:60:54:aa:60:cb:
        3a:e4:5e:16:f7:e6:ca:30:5a:c9:1e:51:5f:b1:70:e8:7f:e4:
        eb:be:e1:c0:37:b3:e3:46:a5:c1:e7:e7:30:81:8f:23:c7:24:
        63:c1:36:4a:fa:df:4d:34:35:86:fb:cc:ce:ba:2e:0e:d1:27:
        bd:bc:55:54
-----BEGIN CERTIFICATE-----
MIIDOjCCAiKgAwIBAgIBBTANBgkqhkiG9w0BAQsFADAbMRkwFwYDVQQDExBURVNU
IEVOVElUWSBMSVIzMB4XDTA3MDgxMDAwNTgxN1oXDTA4MDgwOTAwNTgxN1owHDEa
MBgGA1UEAxMRVEVTVCBFTlRJVFkgSVNQNWIwggEiMA0GCSqGSIb3DQEBAQUAA4IB
DwAwggEKAoIBAQC/j1nY/PodBHApznsBZCFA3FxD/kyviMhim76cco+KpTSKOyON
m4pPv2asaHGc/WhZ9b+fTS611uP6vfNgU1y3EayVC8CHzZmelFeN7AW436r8jjjT
D2VtCWDy4ZiBcthRPkGRsxCV9fXQ+eVcoYX6cSaF49FMAn8U4h5KipZontYWpe+t
tYNizSN0fIJWtNE0U1qKemGfrlRb7/lW3odrQpK8SfS1wzUHShhH0pLGHBZ0dLHp
OTxTEgWd69ycciuXTSchd5Z9TM55DPunuJlrZiAuVpxEtONegMR9eKG0BfcgfSYe
RL9daRU8eiRnvbm1CA8zTa87Lee5qx0r1vtzAgMBAAGjgYcwgYQwDwYDVR0TAQH/
BAUwAwEB/zAdBgNVHQ4EFgQUbLNllP7Gn0pQnU2LQBqh/ZcXl5IwDgYDVR0PAQH/
BAQDAgEGMEIGCCsGAQUFBwELBDYwNDAyBggrBgEFBQcwBYYmcnN5bmM6Ly93b21i
YXRzLXItdXMuaGFjdHJuLm5ldC9JU1A1Yi8wDQYJKoZIhvcNAQELBQADggEBAGBU
8IjBbiUikDUFtdmgyhwi2j4y96LDtzHwAhFmj76+rsdpvEe57W7Sj7TMDUMAej7g
1D0Ix8NOXkBqMLswfPReLuB0/F2OtC8umBJBMQtM0xT1HVxm40/i4R7LSICyO1kQ
MJB6zZzkpRT4uSo5OwulXVvyT5PZLPs+FBvxzYsMnYWeH3yxqZf9m1ESYsmnn6LQ
hqxA5W/1VwDfYFplIK6iJYTDBNDeLhUoIs8N1joDcCuJTnIIAO9f+z+Ca1uhVU9g
VKpgyzrkXhb35sowWskeUV+xcOh/5Ou+4cA3s+NGpcHn5zCBjyPHJGPBNkr63000
NYb7zM66Lg7RJ728VVQ=
-----END CERTIFICATE-----
