Certificate:
    Data:
        Version: 3 (0x2)
        Serial Number: 17 (0x11)
        Signature Algorithm: sha256WithRSAEncryption
        Issuer: CN=TEST ENTITY LIR2
        Validity
            Not Before: Aug 10 01:13:39 2007 GMT
            Not After : Aug  9 01:13:39 2008 GMT
        Subject: CN=TEST ENTITY ISP4
        Subject Public Key Info:
            Public Key Algorithm: rsaEncryption
            RSA Public Key: (2048 bit)
                Modulus (2048 bit):
                    00:b3:05:ad:fb:06:db:49:81:ad:df:50:04:e0:18:
                    e8:f1:f4:83:e6:26:4b:9e:fc:2d:1c:df:e2:2b:57:
                    38:48:eb:c4:13:a3:fd:6c:c5:e2:1c:d5:3a:fd:66:
                    d7:ff:2e:ff:4a:b7:5a:c5:f4:19:b1:8d:9e:a8:49:
                    4e:3b:20:46:da:08:de:b0:9c:71:5e:77:a9:14:e2:
                    4c:20:0e:ff:c5:20:fa:f3:6d:3b:0b:ce:e1:72:b6:
                    ff:f5:75:7f:3e:35:af:1c:4f:e0:92:45:f0:1f:57:
                    ce:38:6c:3e:f6:2f:96:73:1f:60:db:63:8e:63:b3:
                    f3:35:85:e9:00:39:92:b3:9f:4a:6b:bd:e9:a0:00:
                    ca:be:fe:27:78:9b:44:23:53:56:13:48:7d:cd:d1:
                    01:3a:88:36:66:4f:7f:f3:2c:9f:c7:c4:52:75:1e:
                    0e:3c:50:29:c9:39:e0:ff:90:4d:95:47:56:13:e1:
                    30:f3:30:33:ee:02:60:70:b0:bd:dd:3b:aa:b9:2a:
                    86:bf:e7:e2:a8:ec:64:2a:0b:12:05:08:03:7e:d8:
                    41:bb:23:de:29:e5:0f:9b:3b:00:2e:4f:0e:f5:31:
                    91:ec:bd:34:02:68:6d:d7:71:a9:8c:4d:23:d2:43:
                    ae:d7:f8:e5:69:2b:ae:13:86:13:27:38:72:48:70:
                    f8:1f
                Exponent: 65537 (0x10001)
        X509v3 extensions:
            X509v3 Basic Constraints: critical
                CA:TRUE
            X509v3 Key Usage: critical
                Certificate Sign, CRL Sign
            Subject Information Access: 
                1.3.6.1.5.5.7.48.5 - URI:rsync://wombats-r-us.hactrn.net/ISP4/

    Signature Algorithm: sha256WithRSAEncryption
        a8:55:fe:aa:11:d7:ec:08:34:d2:a3:70:f6:13:67:b5:7e:68:
        6e:b1:e8:3e:f6:e8:49:3f:4d:aa:86:19:01:43:2a:93:de:f3:
        43:06:cc:ff:bf:23:81:a4:42:50:92:cf:d9:64:de:a3:92:1c:
        3c:08:f3:97:6d:76:3c:b3:5f:cb:70:49:52:ec:bf:5d:c0:fc:
        72:4a:79:d9:19:02:96:cc:f5:3c:3d:b8:ea:b1:5a:6e:9d:17:
        08:d8:3e:4e:9f:d6:b6:6d:3f:0c:f5:28:ca:84:3d:65:1a:ba:
        d5:72:52:e5:e6:01:d9:66:df:a7:42:4c:6e:76:f6:50:13:78:
        29:13:bd:0c:bc:a8:15:fb:9d:56:5e:cb:c2:36:86:b9:41:74:
        2c:79:83:06:fb:83:6b:80:56:9f:a3:b6:01:ab:58:d9:20:ba:
        9c:2c:47:b7:06:f0:55:18:89:02:34:e1:ae:f1:53:a2:66:5a:
        86:3c:2a:c2:ba:92:33:6e:18:20:2c:ae:f8:4f:bc:2f:2f:e4:
        cc:f2:80:de:f5:2c:4d:4a:dc:29:3e:af:f9:f0:86:4a:a7:b7:
        3e:7a:42:11:69:5a:35:8a:5c:96:00:eb:65:d9:a8:2b:03:db:
        fb:7e:c8:c9:dd:8c:55:b8:b6:da:58:51:a9:b6:59:60:45:6d:
        b2:b5:64:7e
-----BEGIN CERTIFICATE-----
MIIDFzCCAf+gAwIBAgIBETANBgkqhkiG9w0BAQsFADAbMRkwFwYDVQQDExBURVNU
IEVOVElUWSBMSVIyMB4XDTA3MDgxMDAxMTMzOVoXDTA4MDgwOTAxMTMzOVowGzEZ
MBcGA1UEAxMQVEVTVCBFTlRJVFkgSVNQNDCCASIwDQYJKoZIhvcNAQEBBQADggEP
ADCCAQoCggEBALMFrfsG20mBrd9QBOAY6PH0g+YmS578LRzf4itXOEjrxBOj/WzF
4hzVOv1m1/8u/0q3WsX0GbGNnqhJTjsgRtoI3rCccV53qRTiTCAO/8Ug+vNtOwvO
4XK2//V1fz41rxxP4JJF8B9XzjhsPvYvlnMfYNtjjmOz8zWF6QA5krOfSmu96aAA
yr7+J3ibRCNTVhNIfc3RATqINmZPf/Msn8fEUnUeDjxQKck54P+QTZVHVhPhMPMw
M+4CYHCwvd07qrkqhr/n4qjsZCoLEgUIA37YQbsj3inlD5s7AC5PDvUxkey9NAJo
bddxqYxNI9JDrtf45WkrrhOGEyc4ckhw+B8CAwEAAaNmMGQwDwYDVR0TAQH/BAUw
AwEB/zAOBgNVHQ8BAf8EBAMCAQYwQQYIKwYBBQUHAQsENTAzMDEGCCsGAQUFBzAF
hiVyc3luYzovL3dvbWJhdHMtci11cy5oYWN0cm4ubmV0L0lTUDQvMA0GCSqGSIb3
DQEBCwUAA4IBAQCoVf6qEdfsCDTSo3D2E2e1fmhuseg+9uhJP02qhhkBQyqT3vND
Bsz/vyOBpEJQks/ZZN6jkhw8CPOXbXY8s1/LcElS7L9dwPxySnnZGQKWzPU8Pbjq
sVpunRcI2D5On9a2bT8M9SjKhD1lGrrVclLl5gHZZt+nQkxudvZQE3gpE70MvKgV
+51WXsvCNoa5QXQseYMG+4NrgFafo7YBq1jZILqcLEe3BvBVGIkCNOGu8VOiZlqG
PCrCupIzbhggLK74T7wvL+TM8oDe9SxNStwpPq/58IZKp7c+ekIRaVo1ilyWAOtl
2agrA9v7fsjJ3YxVuLbaWFGptllgRW2ytWR+
-----END CERTIFICATE-----
