Certificate:
    Data:
        Version: 3 (0x2)
        Serial Number: 11 (0xb)
        Signature Algorithm: sha256WithRSAEncryption
        Issuer: CN=TEST ENTITY LIR1
        Validity
            Not Before: Aug 10 00:58:18 2007 GMT
            Not After : Aug  9 00:58:18 2008 GMT
        Subject: CN=TEST ENTITY ISP2
        Subject Public Key Info:
            Public Key Algorithm: rsaEncryption
            RSA Public Key: (2048 bit)
                Modulus (2048 bit):
                    00:d0:77:df:c4:21:af:1b:5a:6b:a8:a7:28:d7:43:
                    c8:9b:6d:25:d8:8d:7f:91:2b:e3:95:fd:92:60:ac:
                    14:12:d7:23:68:85:4b:0e:db:2b:e6:38:e0:48:db:
                    18:37:8f:40:c0:90:58:0e:3f:09:67:5f:8e:3f:04:
                    75:06:60:92:42:f3:e4:45:04:35:95:5d:e9:22:42:
                    2c:f6:5c:a6:7d:79:8c:e1:08:19:7c:35:9d:3a:fd:
                    e7:ff:9b:29:b5:ee:89:47:cc:0d:83:a0:e1:73:af:
                    1f:09:84:a8:0b:83:cc:79:88:bf:7c:1d:73:d6:ab:
                    42:1b:64:9a:5c:19:83:2b:9d:e5:ad:4c:58:05:76:
                    95:70:23:ee:a5:c0:31:ca:a2:a7:c8:1d:1e:f2:c9:
                    f2:3d:38:82:c2:53:e5:54:86:f2:7c:b1:73:e1:dc:
                    e9:86:73:08:ac:59:3b:be:2f:58:c1:42:c5:80:18:
                    8c:3a:0a:2a:32:f6:fe:28:d0:28:52:83:c6:30:69:
                    51:90:59:19:9b:d3:d4:c2:e0:52:6a:c1:4e:59:9a:
                    18:e4:78:2e:57:f9:7f:2b:5d:76:28:c9:c9:c5:7e:
                    e5:43:a1:9b:68:d2:06:1c:be:3f:69:f9:c2:fa:9e:
                    4f:68:cf:63:6f:db:6d:fc:67:35:c0:b1:6e:0a:37:
                    ec:33
                Exponent: 65537 (0x10001)
        X509v3 extensions:
            X509v3 Basic Constraints: critical
                CA:TRUE
            X509v3 Subject Key Identifier: 
                73:B2:16:1A:CD:DC:D7:30:60:0F:FA:81:95:F8:A2:F5:4E:95:F3:AD
            X509v3 Key Usage: critical
                Certificate Sign, CRL Sign
            Subject Information Access: 
                1.3.6.1.5.5.7.48.5 - URI:rsync://wombats-r-us.hactrn.net/ISP2/

    Signature Algorithm: sha256WithRSAEncryption
        48:2e:66:23:11:dd:1c:f1:3a:9a:28:62:9a:5c:73:75:4a:7a:
        2d:25:24:60:36:62:e5:92:ad:ff:69:08:49:d6:35:7f:e1:53:
        c4:6c:17:30:d0:6d:f1:35:4c:9a:54:67:e2:78:d8:a3:88:c9:
        ef:29:be:ad:5b:f1:2e:66:4e:b6:df:a5:f2:2b:c6:45:48:a5:
        b6:54:2d:bb:35:96:75:0a:c1:7b:79:fc:00:ad:9b:a1:d3:dd:
        f6:b3:72:1b:68:3a:24:92:96:46:1f:46:1e:a8:ea:50:27:f6:
        d4:3c:ba:ce:11:d2:79:88:a9:fc:43:55:ed:1f:38:92:6c:e3:
        23:26:51:26:c4:5f:f5:11:a3:0f:bf:dd:ff:45:0c:54:08:0a:
        48:cd:7f:91:70:b2:e7:83:83:55:33:10:ba:36:27:5d:c5:e0:
        d4:44:94:f7:19:25:8f:c0:e3:c4:99:5c:fd:f8:03:58:57:75:
        6d:de:e2:71:55:1f:1c:20:51:17:ae:98:8f:93:30:6c:59:49:
        c9:a4:f1:cc:81:83:ae:49:10:d3:13:e8:44:61:c3:16:a2:f1:
        c4:02:9e:0f:44:3b:9d:a5:3e:81:b1:01:37:e9:33:28:87:f0:
        4a:7b:c9:5a:25:ba:76:b0:09:97:b5:11:8c:60:96:1d:17:22:
        8e:72:80:4c
-----BEGIN CERTIFICATE-----
MIIDODCCAiCgAwIBAgIBCzANBgkqhkiG9w0BAQsFADAbMRkwFwYDVQQDExBURVNU
IEVOVElUWSBMSVIxMB4XDTA3MDgxMDAwNTgxOFoXDTA4MDgwOTAwNTgxOFowGzEZ
MBcGA1UEAxMQVEVTVCBFTlRJVFkgSVNQMjCCASIwDQYJKoZIhvcNAQEBBQADggEP
ADCCAQoCggEBANB338Qhrxtaa6inKNdDyJttJdiNf5Er45X9kmCsFBLXI2iFSw7b
K+Y44EjbGDePQMCQWA4/CWdfjj8EdQZgkkLz5EUENZVd6SJCLPZcpn15jOEIGXw1
nTr95/+bKbXuiUfMDYOg4XOvHwmEqAuDzHmIv3wdc9arQhtkmlwZgyud5a1MWAV2
lXAj7qXAMcqip8gdHvLJ8j04gsJT5VSG8nyxc+Hc6YZzCKxZO74vWMFCxYAYjDoK
KjL2/ijQKFKDxjBpUZBZGZvT1MLgUmrBTlmaGOR4Llf5fytddijJycV+5UOhm2jS
Bhy+P2n5wvqeT2jPY2/bbfxnNcCxbgo37DMCAwEAAaOBhjCBgzAPBgNVHRMBAf8E
BTADAQH/MB0GA1UdDgQWBBRzshYazdzXMGAP+oGV+KL1TpXzrTAOBgNVHQ8BAf8E
BAMCAQYwQQYIKwYBBQUHAQsENTAzMDEGCCsGAQUFBzAFhiVyc3luYzovL3dvbWJh
dHMtci11cy5oYWN0cm4ubmV0L0lTUDIvMA0GCSqGSIb3DQEBCwUAA4IBAQBILmYj
Ed0c8TqaKGKaXHN1SnotJSRgNmLlkq3/aQhJ1jV/4VPEbBcw0G3xNUyaVGfieNij
iMnvKb6tW/EuZk6236XyK8ZFSKW2VC27NZZ1CsF7efwArZuh0932s3IbaDokkpZG
H0YeqOpQJ/bUPLrOEdJ5iKn8Q1XtHziSbOMjJlEmxF/1EaMPv93/RQxUCApIzX+R
cLLng4NVMxC6NiddxeDURJT3GSWPwOPEmVz9+ANYV3Vt3uJxVR8cIFEXrpiPkzBs
WUnJpPHMgYOuSRDTE+hEYcMWovHEAp4PRDudpT6BsQE36TMoh/BKe8laJbp2sAmX
tRGMYJYdFyKOcoBM
-----END CERTIFICATE-----
