Certificate:
    Data:
        Version: 3 (0x2)
        Serial Number: 17 (0x11)
        Signature Algorithm: sha256WithRSAEncryption
        Issuer: CN=TEST ENTITY LIR1
        Validity
            Not Before: Aug 10 01:13:40 2007 GMT
            Not After : Aug  9 01:13:40 2008 GMT
        Subject: CN=TEST ENTITY ISP2
        Subject Public Key Info:
            Public Key Algorithm: rsaEncryption
            RSA Public Key: (2048 bit)
                Modulus (2048 bit):
                    00:d0:77:df:c4:21:af:1b:5a:6b:a8:a7:28:d7:43:
                    c8:9b:6d:25:d8:8d:7f:91:2b:e3:95:fd:92:60:ac:
                    14:12:d7:23:68:85:4b:0e:db:2b:e6:38:e0:48:db:
                    18:37:8f:40:c0:90:58:0e:3f:09:67:5f:8e:3f:04:
                    75:06:60:92:42:f3:e4:45:04:35:95:5d:e9:22:42:
                    2c:f6:5c:a6:7d:79:8c:e1:08:19:7c:35:9d:3a:fd:
                    e7:ff:9b:29:b5:ee:89:47:cc:0d:83:a0:e1:73:af:
                    1f:09:84:a8:0b:83:cc:79:88:bf:7c:1d:73:d6:ab:
                    42:1b:64:9a:5c:19:83:2b:9d:e5:ad:4c:58:05:76:
                    95:70:23:ee:a5:c0:31:ca:a2:a7:c8:1d:1e:f2:c9:
                    f2:3d:38:82:c2:53:e5:54:86:f2:7c:b1:73:e1:dc:
                    e9:86:73:08:ac:59:3b:be:2f:58:c1:42:c5:80:18:
                    8c:3a:0a:2a:32:f6:fe:28:d0:28:52:83:c6:30:69:
                    51:90:59:19:9b:d3:d4:c2:e0:52:6a:c1:4e:59:9a:
                    18:e4:78:2e:57:f9:7f:2b:5d:76:28:c9:c9:c5:7e:
                    e5:43:a1:9b:68:d2:06:1c:be:3f:69:f9:c2:fa:9e:
                    4f:68:cf:63:6f:db:6d:fc:67:35:c0:b1:6e:0a:37:
                    ec:33
                Exponent: 65537 (0x10001)
        X509v3 extensions:
            X509v3 Basic Constraints: critical
                CA:TRUE
            X509v3 Key Usage: critical
                Certificate Sign, CRL Sign
            Subject Information Access: 
                1.3.6.1.5.5.7.48.5 - URI:rsync://wombats-r-us.hactrn.net/ISP2/

    Signature Algorithm: sha256WithRSAEncryption
        6d:01:ed:47:42:63:b1:28:58:2b:d2:a2:fc:c5:b2:b8:49:3b:
        dd:1a:cf:5a:28:c2:35:ae:e8:7e:ec:39:e8:7f:ca:d3:eb:a5:
        c6:7a:ef:46:6f:c8:48:5f:9d:eb:dc:c8:4c:cf:88:68:be:59:
        a5:be:03:22:18:27:1c:3a:f2:90:3a:db:ae:6a:b0:fe:ce:4e:
        71:cb:3c:c9:d7:c1:ff:69:a8:78:6e:45:15:c5:b5:a5:74:92:
        87:7d:76:d1:ec:38:91:25:86:71:a0:5b:fb:e2:97:c4:b6:a3:
        ec:21:22:89:71:d4:36:da:c2:90:a7:09:c9:3f:4a:a7:ed:eb:
        64:b5:4e:6f:44:16:60:42:72:49:38:e2:92:f4:62:a9:de:56:
        a9:70:fb:aa:8e:63:1f:d6:71:a2:b0:6b:c2:76:a2:27:05:69:
        53:5b:fd:b8:9e:29:ee:ba:eb:a8:32:8c:28:0c:39:94:64:72:
        6f:d3:33:a9:6d:be:9a:62:86:62:60:95:57:1a:c4:fa:c9:cd:
        dd:19:a2:90:76:24:01:47:32:8b:3a:95:dc:24:d9:79:07:c8:
        30:5d:7f:e8:23:ea:3d:5a:bd:d6:99:b3:1c:01:0e:6d:5d:0b:
        87:eb:88:4e:8c:78:2b:d0:b6:80:07:c6:10:3c:79:bd:ba:95:
        9c:0e:84:3e
-----BEGIN CERTIFICATE-----
MIIDFzCCAf+gAwIBAgIBETANBgkqhkiG9w0BAQsFADAbMRkwFwYDVQQDExBURVNU
IEVOVElUWSBMSVIxMB4XDTA3MDgxMDAxMTM0MFoXDTA4MDgwOTAxMTM0MFowGzEZ
MBcGA1UEAxMQVEVTVCBFTlRJVFkgSVNQMjCCASIwDQYJKoZIhvcNAQEBBQADggEP
ADCCAQoCggEBANB338Qhrxtaa6inKNdDyJttJdiNf5Er45X9kmCsFBLXI2iFSw7b
K+Y44EjbGDePQMCQWA4/CWdfjj8EdQZgkkLz5EUENZVd6SJCLPZcpn15jOEIGXw1
nTr95/+bKbXuiUfMDYOg4XOvHwmEqAuDzHmIv3wdc9arQhtkmlwZgyud5a1MWAV2
lXAj7qXAMcqip8gdHvLJ8j04gsJT5VSG8nyxc+Hc6YZzCKxZO74vWMFCxYAYjDoK
KjL2/ijQKFKDxjBpUZBZGZvT1MLgUmrBTlmaGOR4Llf5fytddijJycV+5UOhm2jS
Bhy+P2n5wvqeT2jPY2/bbfxnNcCxbgo37DMCAwEAAaNmMGQwDwYDVR0TAQH/BAUw
AwEB/zAOBgNVHQ8BAf8EBAMCAQYwQQYIKwYBBQUHAQsENTAzMDEGCCsGAQUFBzAF
hiVyc3luYzovL3dvbWJhdHMtci11cy5oYWN0cm4ubmV0L0lTUDIvMA0GCSqGSIb3
DQEBCwUAA4IBAQBtAe1HQmOxKFgr0qL8xbK4STvdGs9aKMI1ruh+7Dnof8rT66XG
eu9Gb8hIX53r3MhMz4hovlmlvgMiGCccOvKQOtuuarD+zk5xyzzJ18H/aah4bkUV
xbWldJKHfXbR7DiRJYZxoFv74pfEtqPsISKJcdQ22sKQpwnJP0qn7etktU5vRBZg
QnJJOOKS9GKp3lapcPuqjmMf1nGisGvCdqInBWlTW/24ninuuuuoMowoDDmUZHJv
0zOpbb6aYoZiYJVXGsT6yc3dGaKQdiQBRzKLOpXcJNl5B8gwXX/oI+o9Wr3WmbMc
AQ5tXQuH64hOjHgr0LaAB8YQPHm9upWcDoQ+
-----END CERTIFICATE-----
