Certificate:
    Data:
        Version: 3 (0x2)
        Serial Number: 18 (0x12)
        Signature Algorithm: sha256WithRSAEncryption
        Issuer: CN=TEST ENTITY LIR1
        Validity
            Not Before: Aug 10 01:13:40 2007 GMT
            Not After : Aug  9 01:13:40 2008 GMT
        Subject: CN=TEST ENTITY ISP1
        Subject Public Key Info:
            Public Key Algorithm: rsaEncryption
            RSA Public Key: (2048 bit)
                Modulus (2048 bit):
                    00:eb:80:54:7a:74:4b:e4:81:15:d0:25:2d:5e:21:
                    be:47:e6:31:ab:e2:fe:79:55:48:b7:36:55:3d:dc:
                    11:88:5b:b7:36:be:d3:bb:d7:16:8d:f8:4b:f4:c5:
                    bd:34:c4:8e:2c:67:97:e6:27:10:40:c5:36:f4:b6:
                    6c:b9:29:82:2e:76:b0:29:ea:43:9a:d1:30:de:05:
                    a1:c1:54:7c:17:67:1d:fc:29:dd:80:53:b2:81:30:
                    db:13:ee:3e:e6:5d:c7:bc:3d:a6:11:6d:81:77:b7:
                    9f:3e:36:df:7c:d6:d2:5a:22:36:68:7c:14:cc:ac:
                    54:ed:ae:fd:e2:cd:b1:a3:5d:a9:65:ec:1b:8b:4b:
                    cf:80:8e:a6:98:8f:69:b1:a6:35:bd:69:c9:2e:66:
                    7f:22:11:66:56:c5:75:4c:81:a3:6e:49:71:0d:f5:
                    75:87:13:e8:62:e8:1a:0c:a8:30:81:6a:be:90:59:
                    23:3b:61:c0:15:5f:68:bf:b5:c9:3f:af:3a:a2:7f:
                    80:01:78:f6:f4:55:ca:ee:ca:8d:08:9b:c5:3e:74:
                    98:02:b2:0b:a6:d8:e8:6e:78:88:7b:95:76:b6:ca:
                    be:f1:80:a9:dd:e8:3c:80:91:ce:3f:fd:0b:dd:b7:
                    d8:a6:8c:94:20:07:19:74:fa:86:ff:cb:97:c3:f6:
                    a4:e7
                Exponent: 65537 (0x10001)
        X509v3 extensions:
            X509v3 Basic Constraints: critical
                CA:TRUE
            X509v3 Key Usage: critical
                Certificate Sign, CRL Sign
            Subject Information Access: 
                1.3.6.1.5.5.7.48.5 - URI:rsync://wombats-r-us.hactrn.net/ISP1/

    Signature Algorithm: sha256WithRSAEncryption
        95:4a:1c:f9:a4:d7:b8:75:16:2e:25:5a:ae:7d:e4:d0:eb:27:
        51:b9:40:12:86:f2:98:9d:f2:76:ee:d4:be:0b:74:8f:81:f3:
        14:a7:57:10:be:2c:19:b6:80:1c:4f:8e:e0:8d:96:70:8d:50:
        0f:55:22:27:d1:1a:a4:e9:cf:77:32:89:54:3f:10:9d:d8:ab:
        17:26:67:3e:ea:99:89:d8:57:6c:e5:7b:9b:bd:5a:1c:f4:18:
        14:8f:d1:2f:6b:93:34:ad:19:8b:a0:90:dc:69:48:96:65:7c:
        7b:f0:6d:25:f9:5d:9d:2d:2f:57:bf:1c:c1:ee:01:e0:f7:e9:
        52:bc:45:4b:4e:fc:94:78:92:98:66:56:d3:e0:cb:38:7f:4e:
        dd:97:b7:03:16:fa:fa:7b:2d:b8:78:f2:9f:f3:61:d3:02:3c:
        47:7a:a3:a7:36:27:19:d3:c9:53:a8:e7:09:d0:50:84:a7:fc:
        53:b3:37:8e:72:1f:a6:b9:1c:09:35:20:d9:ed:0c:66:ec:ef:
        93:39:9b:29:50:5b:ed:1f:0c:3d:30:f6:22:1a:0e:7d:4d:8d:
        17:07:96:4f:c3:a9:72:3d:6d:c0:da:af:a7:8b:14:85:0c:fc:
        de:cd:cc:58:5c:a0:7b:bf:a9:de:0e:3b:92:0a:57:ab:e3:e4:
        cb:83:1e:30
-----BEGIN CERTIFICATE-----
MIIDFzCCAf+gAwIBAgIBEjANBgkqhkiG9w0BAQsFADAbMRkwFwYDVQQDExBURVNU
IEVOVElUWSBMSVIxMB4XDTA3MDgxMDAxMTM0MFoXDTA4MDgwOTAxMTM0MFowGzEZ
MBcGA1UEAxMQVEVTVCBFTlRJVFkgSVNQMTCCASIwDQYJKoZIhvcNAQEBBQADggEP
ADCCAQoCggEBAOuAVHp0S+SBFdAlLV4hvkfmMavi/nlVSLc2VT3cEYhbtza+07vX
Fo34S/TFvTTEjixnl+YnEEDFNvS2bLkpgi52sCnqQ5rRMN4FocFUfBdnHfwp3YBT
soEw2xPuPuZdx7w9phFtgXe3nz4233zW0loiNmh8FMysVO2u/eLNsaNdqWXsG4tL
z4COppiPabGmNb1pyS5mfyIRZlbFdUyBo25JcQ31dYcT6GLoGgyoMIFqvpBZIzth
wBVfaL+1yT+vOqJ/gAF49vRVyu7KjQibxT50mAKyC6bY6G54iHuVdrbKvvGAqd3o
PICRzj/9C9232KaMlCAHGXT6hv/Ll8P2pOcCAwEAAaNmMGQwDwYDVR0TAQH/BAUw
AwEB/zAOBgNVHQ8BAf8EBAMCAQYwQQYIKwYBBQUHAQsENTAzMDEGCCsGAQUFBzAF
hiVyc3luYzovL3dvbWJhdHMtci11cy5oYWN0cm4ubmV0L0lTUDEvMA0GCSqGSIb3
DQEBCwUAA4IBAQCVShz5pNe4dRYuJVqufeTQ6ydRuUAShvKYnfJ27tS+C3SPgfMU
p1cQviwZtoAcT47gjZZwjVAPVSIn0Rqk6c93MolUPxCd2KsXJmc+6pmJ2Fds5Xub
vVoc9BgUj9Eva5M0rRmLoJDcaUiWZXx78G0l+V2dLS9XvxzB7gHg9+lSvEVLTvyU
eJKYZlbT4Ms4f07dl7cDFvr6ey24ePKf82HTAjxHeqOnNicZ08lTqOcJ0FCEp/xT
szeOch+muRwJNSDZ7Qxm7O+TOZspUFvtHww9MPYiGg59TY0XB5ZPw6lyPW3A2q+n
ixSFDPzezcxYXKB7v6neDjuSCler4+TLgx4w
-----END CERTIFICATE-----
