Certificate:
    Data:
        Version: 3 (0x2)
        Serial Number: 19 (0x13)
        Signature Algorithm: sha256WithRSAEncryption
        Issuer: CN=TEST ENTITY RIR
        Validity
            Not Before: Aug 10 00:58:17 2007 GMT
            Not After : Aug  9 00:58:17 2008 GMT
        Subject: CN=TEST ENTITY RIR
        Subject Public Key Info:
            Public Key Algorithm: rsaEncryption
            RSA Public Key: (2048 bit)
                Modulus (2048 bit):
                    00:ac:a7:26:c4:98:68:99:b6:f2:e7:c5:97:05:7e:
                    f9:d7:f2:ec:39:e6:2b:8e:c2:42:88:b9:8f:22:b6:
                    3c:59:b0:0e:8a:1d:0e:f8:81:b1:c8:ff:4a:8a:1a:
                    43:bc:78:91:3e:af:b2:b0:95:60:a9:3e:9d:c2:ff:
                    99:8f:8f:b6:dc:d8:46:b7:86:35:a6:f6:42:05:c2:
                    c5:9b:84:15:e2:58:0f:70:9c:bc:53:d7:28:76:f8:
                    f2:14:79:22:bd:d6:8b:6c:0e:2b:02:e5:d8:f3:33:
                    fa:16:43:9b:80:87:f9:b2:45:ab:bd:7d:14:b2:24:
                    2f:41:13:6f:45:c4:dc:f9:4d:7f:d8:d3:e1:aa:5c:
                    52:9d:c9:7a:38:b7:b0:43:bd:b7:6a:37:43:ec:e7:
                    34:c4:3b:4c:ca:cc:7b:1f:91:ef:ab:d4:35:76:42:
                    82:d4:f5:79:e0:12:3c:24:92:2e:dc:a2:5c:83:f0:
                    71:8a:26:96:30:d4:b8:96:4d:00:2c:1a:f0:0f:79:
                    52:c7:27:73:54:77:c1:86:f9:86:61:ce:e0:69:a7:
                    a8:3d:77:39:e7:24:ee:41:8d:52:19:3b:57:8c:84:
                    cc:9a:d5:05:7c:e6:83:2c:e3:13:6d:66:1b:87:20:
                    82:47:e1:05:26:f0:3b:29:69:6d:bc:af:48:91:c4:
                    40:f1
                Exponent: 65537 (0x10001)
        X509v3 extensions:
            X509v3 Basic Constraints: critical
                CA:TRUE
            X509v3 Subject Key Identifier: 
                FB:B8:A7:A3:36:48:0A:A0:9F:F0:2E:DC:8B:68:BC:B3:5C:45:25:D7
            X509v3 Key Usage: critical
                Certificate Sign, CRL Sign
            Subject Information Access: 
                1.3.6.1.5.5.7.48.5 - URI:rsync://wombats-r-us.hactrn.net/RIR/

    Signature Algorithm: sha256WithRSAEncryption
        62:6a:d0:3e:02:bf:ad:3c:e5:c9:23:1f:66:6d:cc:80:59:a5:
        64:61:f2:20:64:bc:91:5d:76:d9:ce:6e:db:d1:c0:89:77:9d:
        cc:a6:e2:4a:43:0e:bb:f3:36:60:3f:1d:b7:9a:38:ad:10:e0:
        89:82:61:c7:4a:48:70:c3:03:73:ae:ab:37:31:0c:36:cc:46:
        12:ea:54:3d:03:d6:ba:4c:d6:cf:73:ea:90:4c:37:da:a3:f6:
        b6:f3:af:d8:a7:82:e7:1a:7b:05:23:77:20:52:b3:53:64:d0:
        bd:24:83:21:49:2f:30:fc:12:3b:fa:73:c3:c9:de:3f:af:bb:
        5e:ed:b3:bf:9b:9e:71:83:37:f1:98:e3:77:e1:72:4f:1d:c6:
        7b:59:32:34:f7:e4:76:70:52:41:72:97:bb:61:c0:c8:26:ac:
        28:6e:e7:ef:f8:6c:ea:b2:4c:62:d0:28:5e:6c:50:94:09:a1:
        d4:ab:0c:d3:b3:d1:4a:ea:ef:33:ed:08:43:54:71:fb:6d:40:
        c8:dc:75:84:28:ff:4e:47:2c:08:54:72:40:af:cc:94:00:a8:
        9f:8e:d9:35:64:49:f1:db:69:a8:d5:71:86:41:46:e0:27:62:
        50:a4:0a:1e:f5:99:b4:d8:db:1c:4f:8b:af:51:4d:80:2b:af:
        e3:b6:b0:6b
-----BEGIN CERTIFICATE-----
MIIDNTCCAh2gAwIBAgIBEzANBgkqhkiG9w0BAQsFADAaMRgwFgYDVQQDEw9URVNU
IEVOVElUWSBSSVIwHhcNMDcwODEwMDA1ODE3WhcNMDgwODA5MDA1ODE3WjAaMRgw
FgYDVQQDEw9URVNUIEVOVElUWSBSSVIwggEiMA0GCSqGSIb3DQEBAQUAA4IBDwAw
ggEKAoIBAQCspybEmGiZtvLnxZcFfvnX8uw55iuOwkKIuY8itjxZsA6KHQ74gbHI
/0qKGkO8eJE+r7KwlWCpPp3C/5mPj7bc2Ea3hjWm9kIFwsWbhBXiWA9wnLxT1yh2
+PIUeSK91otsDisC5djzM/oWQ5uAh/myRau9fRSyJC9BE29FxNz5TX/Y0+GqXFKd
yXo4t7BDvbdqN0Ps5zTEO0zKzHsfke+r1DV2QoLU9XngEjwkki7colyD8HGKJpYw
1LiWTQAsGvAPeVLHJ3NUd8GG+YZhzuBpp6g9dznnJO5BjVIZO1eMhMya1QV85oMs
4xNtZhuHIIJH4QUm8DspaW28r0iRxEDxAgMBAAGjgYUwgYIwDwYDVR0TAQH/BAUw
AwEB/zAdBgNVHQ4EFgQU+7inozZICqCf8C7ci2i8s1xFJdcwDgYDVR0PAQH/BAQD
AgEGMEAGCCsGAQUFBwELBDQwMjAwBggrBgEFBQcwBYYkcnN5bmM6Ly93b21iYXRz
LXItdXMuaGFjdHJuLm5ldC9SSVIvMA0GCSqGSIb3DQEBCwUAA4IBAQBiatA+Ar+t
POXJIx9mbcyAWaVkYfIgZLyRXXbZzm7b0cCJd53MpuJKQw678zZgPx23mjitEOCJ
gmHHSkhwwwNzrqs3MQw2zEYS6lQ9A9a6TNbPc+qQTDfao/a286/Yp4LnGnsFI3cg
UrNTZNC9JIMhSS8w/BI7+nPDyd4/r7te7bO/m55xgzfxmON34XJPHcZ7WTI09+R2
cFJBcpe7YcDIJqwobufv+Gzqskxi0ChebFCUCaHUqwzTs9FK6u8z7QhDVHH7bUDI
3HWEKP9ORywIVHJAr8yUAKifjtk1ZEnx22mo1XGGQUbgJ2JQpAoe9Zm02NscT4uv
UU2AK6/jtrBr
-----END CERTIFICATE-----
