Certificate:
    Data:
        Version: 3 (0x2)
        Serial Number: 31 (0x1f)
        Signature Algorithm: sha256WithRSAEncryption
        Issuer: CN=TEST ENTITY RIR
        Validity
            Not Before: Aug 10 01:13:39 2007 GMT
            Not After : Aug  9 01:13:39 2008 GMT
        Subject: CN=TEST ENTITY RIR
        Subject Public Key Info:
            Public Key Algorithm: rsaEncryption
            RSA Public Key: (2048 bit)
                Modulus (2048 bit):
                    00:ac:a7:26:c4:98:68:99:b6:f2:e7:c5:97:05:7e:
                    f9:d7:f2:ec:39:e6:2b:8e:c2:42:88:b9:8f:22:b6:
                    3c:59:b0:0e:8a:1d:0e:f8:81:b1:c8:ff:4a:8a:1a:
                    43:bc:78:91:3e:af:b2:b0:95:60:a9:3e:9d:c2:ff:
                    99:8f:8f:b6:dc:d8:46:b7:86:35:a6:f6:42:05:c2:
                    c5:9b:84:15:e2:58:0f:70:9c:bc:53:d7:28:76:f8:
                    f2:14:79:22:bd:d6:8b:6c:0e:2b:02:e5:d8:f3:33:
                    fa:16:43:9b:80:87:f9:b2:45:ab:bd:7d:14:b2:24:
                    2f:41:13:6f:45:c4:dc:f9:4d:7f:d8:d3:e1:aa:5c:
                    52:9d:c9:7a:38:b7:b0:43:bd:b7:6a:37:43:ec:e7:
                    34:c4:3b:4c:ca:cc:7b:1f:91:ef:ab:d4:35:76:42:
                    82:d4:f5:79:e0:12:3c:24:92:2e:dc:a2:5c:83:f0:
                    71:8a:26:96:30:d4:b8:96:4d:00:2c:1a:f0:0f:79:
                    52:c7:27:73:54:77:c1:86:f9:86:61:ce:e0:69:a7:
                    a8:3d:77:39:e7:24:ee:41:8d:52:19:3b:57:8c:84:
                    cc:9a:d5:05:7c:e6:83:2c:e3:13:6d:66:1b:87:20:
                    82:47:e1:05:26:f0:3b:29:69:6d:bc:af:48:91:c4:
                    40:f1
                Exponent: 65537 (0x10001)
        X509v3 extensions:
            X509v3 Basic Constraints: critical
                CA:TRUE
            X509v3 Key Usage: critical
                Certificate Sign, CRL Sign
            Subject Information Access: 
                1.3.6.1.5.5.7.48.5 - URI:rsync://wombats-r-us.hactrn.net/RIR/

    Signature Algorithm: sha256WithRSAEncryption
        4f:b2:00:11:14:e9:a9:dc:f3:20:a2:78:94:b7:c5:dd:0c:ff:
        fc:e1:68:13:24:a6:e1:f5:32:47:b2:3a:d4:4c:90:e2:cd:64:
        ef:6d:7d:5c:35:01:96:8f:68:69:dd:be:ff:fa:a2:33:a4:23:
        28:e5:8d:2e:f6:05:fd:54:85:84:86:2f:01:ba:71:cd:b0:ea:
        d5:ab:06:8a:55:15:1e:1e:55:e5:c2:f5:93:0d:43:fc:c8:2d:
        f6:d7:57:8b:d9:71:9a:e6:8b:5a:ce:ea:5d:3c:e8:ae:66:7d:
        69:3f:6d:1e:bd:5d:f4:7b:69:90:bb:72:4a:f3:7c:8e:08:33:
        75:c9:48:53:20:16:ca:02:71:0f:6d:e7:bd:14:73:60:42:69:
        8f:2e:b9:f5:fb:39:e5:5d:51:94:7b:3f:d3:6d:25:64:f8:0c:
        68:e6:cd:d5:e1:10:da:d5:24:00:b0:3c:97:b1:69:e5:67:0b:
        05:1b:46:86:d1:d7:2f:17:0e:17:98:bb:54:9f:4e:60:40:0f:
        7a:77:9e:f0:33:d4:0a:8e:56:f9:57:30:a0:cf:b1:86:41:35:
        dd:d3:f3:b3:35:56:4b:e1:83:ba:a0:9d:40:8d:d0:70:dc:ff:
        60:9d:73:15:84:c5:8a:20:2b:28:02:16:5a:dd:b0:19:ee:cb:
        bd:ea:1f:9b
-----BEGIN CERTIFICATE-----
MIIDFDCCAfygAwIBAgIBHzANBgkqhkiG9w0BAQsFADAaMRgwFgYDVQQDEw9URVNU
IEVOVElUWSBSSVIwHhcNMDcwODEwMDExMzM5WhcNMDgwODA5MDExMzM5WjAaMRgw
FgYDVQQDEw9URVNUIEVOVElUWSBSSVIwggEiMA0GCSqGSIb3DQEBAQUAA4IBDwAw
ggEKAoIBAQCspybEmGiZtvLnxZcFfvnX8uw55iuOwkKIuY8itjxZsA6KHQ74gbHI
/0qKGkO8eJE+r7KwlWCpPp3C/5mPj7bc2Ea3hjWm9kIFwsWbhBXiWA9wnLxT1yh2
+PIUeSK91otsDisC5djzM/oWQ5uAh/myRau9fRSyJC9BE29FxNz5TX/Y0+GqXFKd
yXo4t7BDvbdqN0Ps5zTEO0zKzHsfke+r1DV2QoLU9XngEjwkki7colyD8HGKJpYw
1LiWTQAsGvAPeVLHJ3NUd8GG+YZhzuBpp6g9dznnJO5BjVIZO1eMhMya1QV85oMs
4xNtZhuHIIJH4QUm8DspaW28r0iRxEDxAgMBAAGjZTBjMA8GA1UdEwEB/wQFMAMB
Af8wDgYDVR0PAQH/BAQDAgEGMEAGCCsGAQUFBwELBDQwMjAwBggrBgEFBQcwBYYk
cnN5bmM6Ly93b21iYXRzLXItdXMuaGFjdHJuLm5ldC9SSVIvMA0GCSqGSIb3DQEB
CwUAA4IBAQBPsgARFOmp3PMgoniUt8XdDP/84WgTJKbh9TJHsjrUTJDizWTvbX1c
NQGWj2hp3b7/+qIzpCMo5Y0u9gX9VIWEhi8BunHNsOrVqwaKVRUeHlXlwvWTDUP8
yC3211eL2XGa5otazupdPOiuZn1pP20evV30e2mQu3JK83yOCDN1yUhTIBbKAnEP
bee9FHNgQmmPLrn1+znlXVGUez/TbSVk+Axo5s3V4RDa1SQAsDyXsWnlZwsFG0aG
0dcvFw4XmLtUn05gQA96d57wM9QKjlb5VzCgz7GGQTXd0/OzNVZL4YO6oJ1AjdBw
3P9gnXMVhMWKICsoAhZa3bAZ7su96h+b
-----END CERTIFICATE-----
