Certificate:
    Data:
        Version: 3 (0x2)
        Serial Number: 11 (0xb)
        Signature Algorithm: sha256WithRSAEncryption
        Issuer: CN=TEST ENTITY LIR2
        Validity
            Not Before: Aug 10 00:58:17 2007 GMT
            Not After : Aug  9 00:58:17 2008 GMT
        Subject: CN=TEST ENTITY ISP4
        Subject Public Key Info:
            Public Key Algorithm: rsaEncryption
            RSA Public Key: (2048 bit)
                Modulus (2048 bit):
                    00:b3:05:ad:fb:06:db:49:81:ad:df:50:04:e0:18:
                    e8:f1:f4:83:e6:26:4b:9e:fc:2d:1c:df:e2:2b:57:
                    38:48:eb:c4:13:a3:fd:6c:c5:e2:1c:d5:3a:fd:66:
                    d7:ff:2e:ff:4a:b7:5a:c5:f4:19:b1:8d:9e:a8:49:
                    4e:3b:20:46:da:08:de:b0:9c:71:5e:77:a9:14:e2:
                    4c:20:0e:ff:c5:20:fa:f3:6d:3b:0b:ce:e1:72:b6:
                    ff:f5:75:7f:3e:35:af:1c:4f:e0:92:45:f0:1f:57:
                    ce:38:6c:3e:f6:2f:96:73:1f:60:db:63:8e:63:b3:
                    f3:35:85:e9:00:39:92:b3:9f:4a:6b:bd:e9:a0:00:
                    ca:be:fe:27:78:9b:44:23:53:56:13:48:7d:cd:d1:
                    01:3a:88:36:66:4f:7f:f3:2c:9f:c7:c4:52:75:1e:
                    0e:3c:50:29:c9:39:e0:ff:90:4d:95:47:56:13:e1:
                    30:f3:30:33:ee:02:60:70:b0:bd:dd:3b:aa:b9:2a:
                    86:bf:e7:e2:a8:ec:64:2a:0b:12:05:08:03:7e:d8:
                    41:bb:23:de:29:e5:0f:9b:3b:00:2e:4f:0e:f5:31:
                    91:ec:bd:34:02:68:6d:d7:71:a9:8c:4d:23:d2:43:
                    ae:d7:f8:e5:69:2b:ae:13:86:13:27:38:72:48:70:
                    f8:1f
                Exponent: 65537 (0x10001)
        X509v3 extensions:
            X509v3 Basic Constraints: critical
                CA:TRUE
            X509v3 Subject Key Identifier: 
                98:CF:F8:00:82:EC:D7:E9:17:4F:BD:7A:87:60:32:A5:BB:9D:B5:0E
            X509v3 Key Usage: critical
                Certificate Sign, CRL Sign
            Subject Information Access: 
                1.3.6.1.5.5.7.48.5 - URI:rsync://wombats-r-us.hactrn.net/ISP4/

    Signature Algorithm: sha256WithRSAEncryption
        87:7d:49:12:b5:b5:ca:35:8f:2c:ae:da:fc:4a:35:b2:09:2b:
        ed:7e:64:3d:a2:3c:ce:a5:e6:f4:77:ca:6f:a0:fb:ff:d0:46:
        db:d8:fc:2b:09:35:a3:f6:ca:c1:00:ae:e6:02:93:96:ff:f8:
        2c:f5:40:18:d1:43:aa:ba:80:a7:71:7c:aa:99:ba:bb:59:74:
        fb:b9:64:40:4c:d6:ec:4a:f4:a1:7e:32:ae:94:8d:15:f0:ba:
        bb:0c:20:0c:58:3c:eb:52:5a:02:32:56:1b:97:95:38:8e:a4:
        a7:4d:33:92:d5:5e:8c:e4:ab:81:c9:48:dd:39:28:c3:0b:5d:
        ea:13:8e:69:b0:e3:b6:e3:fb:d3:fe:a6:24:4c:48:fe:55:63:
        dd:27:36:68:a5:51:86:8b:b5:8a:95:4c:ef:89:47:0e:d9:af:
        98:b6:e5:3d:52:5b:a7:b8:5d:d2:d0:bc:b8:7e:cf:65:d3:51:
        78:58:49:27:6c:3b:12:36:21:20:36:dd:e8:ea:d0:9d:55:9d:
        e0:06:49:d2:27:58:a4:4a:64:65:72:8e:f9:43:80:53:94:04:
        c0:de:0b:e1:42:81:da:c6:a0:1c:c6:d6:8b:d2:1b:ee:39:3b:
        e5:c4:9e:99:da:2a:37:88:d7:e5:51:f8:55:d9:c3:4a:a3:69:
        ff:3c:20:0c
-----BEGIN CERTIFICATE-----
MIIDODCCAiCgAwIBAgIBCzANBgkqhkiG9w0BAQsFADAbMRkwFwYDVQQDExBURVNU
IEVOVElUWSBMSVIyMB4XDTA3MDgxMDAwNTgxN1oXDTA4MDgwOTAwNTgxN1owGzEZ
MBcGA1UEAxMQVEVTVCBFTlRJVFkgSVNQNDCCASIwDQYJKoZIhvcNAQEBBQADggEP
ADCCAQoCggEBALMFrfsG20mBrd9QBOAY6PH0g+YmS578LRzf4itXOEjrxBOj/WzF
4hzVOv1m1/8u/0q3WsX0GbGNnqhJTjsgRtoI3rCccV53qRTiTCAO/8Ug+vNtOwvO
4XK2//V1fz41rxxP4JJF8B9XzjhsPvYvlnMfYNtjjmOz8zWF6QA5krOfSmu96aAA
yr7+J3ibRCNTVhNIfc3RATqINmZPf/Msn8fEUnUeDjxQKck54P+QTZVHVhPhMPMw
M+4CYHCwvd07qrkqhr/n4qjsZCoLEgUIA37YQbsj3inlD5s7AC5PDvUxkey9NAJo
bddxqYxNI9JDrtf45WkrrhOGEyc4ckhw+B8CAwEAAaOBhjCBgzAPBgNVHRMBAf8E
BTADAQH/MB0GA1UdDgQWBBSYz/gAguzX6RdPvXqHYDKlu521DjAOBgNVHQ8BAf8E
BAMCAQYwQQYIKwYBBQUHAQsENTAzMDEGCCsGAQUFBzAFhiVyc3luYzovL3dvbWJh
dHMtci11cy5oYWN0cm4ubmV0L0lTUDQvMA0GCSqGSIb3DQEBCwUAA4IBAQCHfUkS
tbXKNY8srtr8SjWyCSvtfmQ9ojzOpeb0d8pvoPv/0Ebb2PwrCTWj9srBAK7mApOW
//gs9UAY0UOquoCncXyqmbq7WXT7uWRATNbsSvShfjKulI0V8Lq7DCAMWDzrUloC
MlYbl5U4jqSnTTOS1V6M5KuByUjdOSjDC13qE45psOO24/vT/qYkTEj+VWPdJzZo
pVGGi7WKlUzviUcO2a+YtuU9UlunuF3S0Ly4fs9l01F4WEknbDsSNiEgNt3o6tCd
VZ3gBknSJ1ikSmRlco75Q4BTlATA3gvhQoHaxqAcxtaL0hvuOTvlxJ6Z2io3iNfl
UfhV2cNKo2n/PCAM
-----END CERTIFICATE-----
