Certificate:
    Data:
        Version: 3 (0x2)
        Serial Number: 12 (0xc)
        Signature Algorithm: sha256WithRSAEncryption
        Issuer: CN=TEST ENTITY LIR2
        Validity
            Not Before: Aug 10 00:58:18 2007 GMT
            Not After : Aug  9 00:58:18 2008 GMT
        Subject: CN=TEST ENTITY ISP3
        Subject Public Key Info:
            Public Key Algorithm: rsaEncryption
            RSA Public Key: (2048 bit)
                Modulus (2048 bit):
                    00:d1:24:75:c1:44:29:12:9a:fe:8c:1d:1e:01:aa:
                    05:ea:1f:47:ab:1a:8d:cf:d2:42:a1:31:7d:9c:3e:
                    66:72:ce:2c:df:01:17:15:40:40:94:d1:ae:6d:d7:
                    ca:fd:52:d9:ec:5f:f0:64:30:a3:42:70:a1:a1:6f:
                    05:2d:10:ee:b1:05:65:3f:f2:c1:78:84:cc:1d:66:
                    ee:35:52:c7:ae:99:76:b1:63:4d:c1:2e:24:fb:f7:
                    43:2d:0b:21:0d:d3:d6:b7:cf:60:50:49:3d:17:53:
                    3e:2b:f8:68:95:7e:1c:c5:e2:1e:73:06:8c:b2:53:
                    a1:70:39:d9:9e:e5:56:fc:58:d0:b3:f3:90:37:5a:
                    6e:5a:3b:ef:05:be:f1:64:2f:31:2e:5a:58:f2:30:
                    7a:73:52:7f:b8:0d:71:3c:63:52:17:0f:b7:07:3b:
                    c3:46:b9:9c:88:bc:73:df:14:5a:bc:16:fc:f8:79:
                    b0:a1:41:87:05:f9:52:a8:36:61:62:de:90:68:21:
                    83:bb:8c:83:47:af:bb:82:3e:44:28:97:2b:02:a8:
                    81:04:05:16:cd:bf:ef:9e:02:f9:54:66:2a:28:99:
                    79:2b:b5:19:10:d4:df:35:95:f3:3f:fa:13:6a:06:
                    6f:f5:38:28:d6:b6:0b:8a:70:5b:8d:70:8d:34:99:
                    96:3f
                Exponent: 65537 (0x10001)
        X509v3 extensions:
            X509v3 Basic Constraints: critical
                CA:TRUE
            X509v3 Subject Key Identifier: 
                E1:97:2E:19:70:B5:7F:FC:82:4F:33:3D:6B:2C:DE:9A:9B:36:3D:7E
            X509v3 Key Usage: critical
                Certificate Sign, CRL Sign
            Subject Information Access: 
                1.3.6.1.5.5.7.48.5 - URI:rsync://wombats-r-us.hactrn.net/ISP3/

    Signature Algorithm: sha256WithRSAEncryption
        97:a4:c3:69:4c:4d:c3:a6:15:69:99:75:4b:04:37:02:b4:f2:
        02:ad:5d:22:4b:c8:73:e3:34:d0:20:34:e3:83:48:ef:e2:75:
        f8:d7:67:4f:9f:d6:20:a4:0d:b1:ab:ba:64:cd:c6:98:0b:67:
        c3:a8:a5:7a:48:fe:4c:a0:34:1c:01:ea:91:79:2c:37:05:56:
        4e:fe:4b:97:c5:f4:65:7b:a2:31:a5:6d:e2:47:c1:15:55:d7:
        90:cb:83:3b:d9:d6:62:3e:09:e1:a4:8b:aa:82:21:de:4b:39:
        d5:c2:d1:c8:88:fc:73:ad:f7:e2:ca:c6:ec:7e:12:67:4c:f1:
        e2:78:21:bf:b9:59:21:d1:3a:36:bc:6f:e8:1e:be:7a:74:4b:
        6e:60:d2:9d:62:21:ac:26:7d:f4:df:da:37:2e:b2:dd:4c:f1:
        64:b6:ef:75:2a:a8:dd:d2:d2:fb:64:c5:fe:e0:f5:68:44:e4:
        1c:48:99:a9:fb:5d:4b:34:bd:d3:4b:c0:40:e7:21:7c:dd:43:
        f1:f7:4d:6b:f2:32:bd:34:14:c5:6c:3c:df:bb:ff:eb:bc:5b:
        d2:76:d1:2c:e8:c0:8e:0c:03:3c:2d:a3:6e:76:00:9d:8d:b9:
        7d:86:8a:84:f9:76:7e:af:f3:ef:3c:8b:a6:0b:59:c0:8c:cf:
        f8:6f:90:6d
-----BEGIN CERTIFICATE-----
MIIDODCCAiCgAwIBAgIBDDANBgkqhkiG9w0BAQsFADAbMRkwFwYDVQQDExBURVNU
IEVOVElUWSBMSVIyMB4XDTA3MDgxMDAwNTgxOFoXDTA4MDgwOTAwNTgxOFowGzEZ
MBcGA1UEAxMQVEVTVCBFTlRJVFkgSVNQMzCCASIwDQYJKoZIhvcNAQEBBQADggEP
ADCCAQoCggEBANEkdcFEKRKa/owdHgGqBeofR6sajc/SQqExfZw+ZnLOLN8BFxVA
QJTRrm3Xyv1S2exf8GQwo0JwoaFvBS0Q7rEFZT/ywXiEzB1m7jVSx66ZdrFjTcEu
JPv3Qy0LIQ3T1rfPYFBJPRdTPiv4aJV+HMXiHnMGjLJToXA52Z7lVvxY0LPzkDda
blo77wW+8WQvMS5aWPIwenNSf7gNcTxjUhcPtwc7w0a5nIi8c98UWrwW/Ph5sKFB
hwX5Uqg2YWLekGghg7uMg0evu4I+RCiXKwKogQQFFs2/754C+VRmKiiZeSu1GRDU
3zWV8z/6E2oGb/U4KNa2C4pwW41wjTSZlj8CAwEAAaOBhjCBgzAPBgNVHRMBAf8E
BTADAQH/MB0GA1UdDgQWBBThly4ZcLV//IJPMz1rLN6amzY9fjAOBgNVHQ8BAf8E
BAMCAQYwQQYIKwYBBQUHAQsENTAzMDEGCCsGAQUFBzAFhiVyc3luYzovL3dvbWJh
dHMtci11cy5oYWN0cm4ubmV0L0lTUDMvMA0GCSqGSIb3DQEBCwUAA4IBAQCXpMNp
TE3DphVpmXVLBDcCtPICrV0iS8hz4zTQIDTjg0jv4nX412dPn9YgpA2xq7pkzcaY
C2fDqKV6SP5MoDQcAeqReSw3BVZO/kuXxfRle6IxpW3iR8EVVdeQy4M72dZiPgnh
pIuqgiHeSznVwtHIiPxzrffiysbsfhJnTPHieCG/uVkh0To2vG/oHr56dEtuYNKd
YiGsJn3039o3LrLdTPFktu91Kqjd0tL7ZMX+4PVoROQcSJmp+11LNL3TS8BA5yF8
3UPx901r8jK9NBTFbDzfu//rvFvSdtEs6MCODAM8LaNudgCdjbl9hoqE+XZ+r/Pv
PIumC1nAjM/4b5Bt
-----END CERTIFICATE-----
