Certificate:
    Data:
        Version: 3 (0x2)
        Serial Number: 18 (0x12)
        Signature Algorithm: sha256WithRSAEncryption
        Issuer: CN=TEST ENTITY LIR2
        Validity
            Not Before: Aug 10 01:13:39 2007 GMT
            Not After : Aug  9 01:13:39 2008 GMT
        Subject: CN=TEST ENTITY ISP3
        Subject Public Key Info:
            Public Key Algorithm: rsaEncryption
            RSA Public Key: (2048 bit)
                Modulus (2048 bit):
                    00:d1:24:75:c1:44:29:12:9a:fe:8c:1d:1e:01:aa:
                    05:ea:1f:47:ab:1a:8d:cf:d2:42:a1:31:7d:9c:3e:
                    66:72:ce:2c:df:01:17:15:40:40:94:d1:ae:6d:d7:
                    ca:fd:52:d9:ec:5f:f0:64:30:a3:42:70:a1:a1:6f:
                    05:2d:10:ee:b1:05:65:3f:f2:c1:78:84:cc:1d:66:
                    ee:35:52:c7:ae:99:76:b1:63:4d:c1:2e:24:fb:f7:
                    43:2d:0b:21:0d:d3:d6:b7:cf:60:50:49:3d:17:53:
                    3e:2b:f8:68:95:7e:1c:c5:e2:1e:73:06:8c:b2:53:
                    a1:70:39:d9:9e:e5:56:fc:58:d0:b3:f3:90:37:5a:
                    6e:5a:3b:ef:05:be:f1:64:2f:31:2e:5a:58:f2:30:
                    7a:73:52:7f:b8:0d:71:3c:63:52:17:0f:b7:07:3b:
                    c3:46:b9:9c:88:bc:73:df:14:5a:bc:16:fc:f8:79:
                    b0:a1:41:87:05:f9:52:a8:36:61:62:de:90:68:21:
                    83:bb:8c:83:47:af:bb:82:3e:44:28:97:2b:02:a8:
                    81:04:05:16:cd:bf:ef:9e:02:f9:54:66:2a:28:99:
                    79:2b:b5:19:10:d4:df:35:95:f3:3f:fa:13:6a:06:
                    6f:f5:38:28:d6:b6:0b:8a:70:5b:8d:70:8d:34:99:
                    96:3f
                Exponent: 65537 (0x10001)
        X509v3 extensions:
            X509v3 Basic Constraints: critical
                CA:TRUE
            X509v3 Key Usage: critical
                Certificate Sign, CRL Sign
            Subject Information Access: 
                1.3.6.1.5.5.7.48.5 - URI:rsync://wombats-r-us.hactrn.net/ISP3/

    Signature Algorithm: sha256WithRSAEncryption
        7c:d9:69:a5:fc:d6:93:9c:2a:ee:7e:1b:f5:86:69:22:8c:66:
        fb:d1:97:63:65:5c:1d:7c:81:c0:ff:ce:6f:48:bd:37:14:7b:
        a6:51:c0:8d:82:a8:a0:97:e4:9a:cd:e8:b8:f8:6c:66:78:50:
        69:b4:66:82:a0:a4:4d:d8:0e:44:60:92:11:49:ab:70:28:95:
        41:a2:6f:8f:b9:8e:45:81:6f:74:4e:14:f9:a5:b6:07:bd:12:
        99:f9:7b:57:9a:0c:06:52:a0:93:d4:dd:23:ab:ae:92:0f:6d:
        8f:76:7b:30:cd:f6:07:ee:63:ff:82:88:bf:e1:25:73:98:f4:
        77:b0:00:16:cc:df:47:8d:c9:54:d0:f3:6b:04:f2:f1:5e:96:
        e6:22:9b:3b:bf:25:89:2f:60:6e:4d:1a:ae:ed:d8:79:7a:8c:
        e6:37:ac:ec:23:60:65:d6:63:38:64:77:1e:2f:b9:17:5f:8d:
        02:06:43:36:01:3f:20:f5:eb:ea:f6:a3:a4:f3:7f:da:d7:ae:
        92:6f:fe:b1:f7:4c:8c:ef:4d:e1:06:98:43:77:de:ea:07:1a:
        6a:3e:75:79:c1:5e:62:f3:f2:1d:8c:5e:d3:2f:6b:a5:f0:6e:
        8b:da:58:97:ec:16:35:3c:a5:7a:56:8f:80:c5:97:e3:30:df:
        ab:8d:cd:36
-----BEGIN CERTIFICATE-----
MIIDFzCCAf+gAwIBAgIBEjANBgkqhkiG9w0BAQsFADAbMRkwFwYDVQQDExBURVNU
IEVOVElUWSBMSVIyMB4XDTA3MDgxMDAxMTMzOVoXDTA4MDgwOTAxMTMzOVowGzEZ
MBcGA1UEAxMQVEVTVCBFTlRJVFkgSVNQMzCCASIwDQYJKoZIhvcNAQEBBQADggEP
ADCCAQoCggEBANEkdcFEKRKa/owdHgGqBeofR6sajc/SQqExfZw+ZnLOLN8BFxVA
QJTRrm3Xyv1S2exf8GQwo0JwoaFvBS0Q7rEFZT/ywXiEzB1m7jVSx66ZdrFjTcEu
JPv3Qy0LIQ3T1rfPYFBJPRdTPiv4aJV+HMXiHnMGjLJToXA52Z7lVvxY0LPzkDda
blo77wW+8WQvMS5aWPIwenNSf7gNcTxjUhcPtwc7w0a5nIi8c98UWrwW/Ph5sKFB
hwX5Uqg2YWLekGghg7uMg0evu4I+RCiXKwKogQQFFs2/754C+VRmKiiZeSu1GRDU
3zWV8z/6E2oGb/U4KNa2C4pwW41wjTSZlj8CAwEAAaNmMGQwDwYDVR0TAQH/BAUw
AwEB/zAOBgNVHQ8BAf8EBAMCAQYwQQYIKwYBBQUHAQsENTAzMDEGCCsGAQUFBzAF
hiVyc3luYzovL3dvbWJhdHMtci11cy5oYWN0cm4ubmV0L0lTUDMvMA0GCSqGSIb3
DQEBCwUAA4IBAQB82Wml/NaTnCrufhv1hmkijGb70ZdjZVwdfIHA/85vSL03FHum
UcCNgqigl+Sazei4+GxmeFBptGaCoKRN2A5EYJIRSatwKJVBom+PuY5FgW90ThT5
pbYHvRKZ+XtXmgwGUqCT1N0jq66SD22PdnswzfYH7mP/goi/4SVzmPR3sAAWzN9H
jclU0PNrBPLxXpbmIps7vyWJL2BuTRqu7dh5eozmN6zsI2Bl1mM4ZHceL7kXX40C
BkM2AT8g9evq9qOk83/a166Sb/6x90yM703hBphDd97qBxpqPnV5wV5i8/IdjF7T
L2ul8G6L2liX7BY1PKV6Vo+AxZfjMN+rjc02
-----END CERTIFICATE-----
